

Microchip MPLAB XC8 Assembler V2.05 build -831301201 
                                                                                               Fri Apr 12 16:41:59 2019

Microchip MPLAB XC8 C Compiler v2.05 (Free license) build 20181220022703 Og1 
     1                           	processor	16F1619
     2                           	opt	pw 120
     3                           	opt	flic
     4                           	psect	stringtext1,global,class=STRCODE,delta=2
     5                           	psect	stringtext2,global,class=STRCODE,delta=2
     6                           	psect	cinit,global,class=CODE,merge=1,delta=2
     7                           	psect	bssBANK0,global,class=BANK0,space=1,delta=1
     8                           	psect	bssBANK1,global,class=BANK1,space=1,delta=1
     9                           	psect	clrtext,global,class=CODE,delta=2
    10                           	psect	cstackCOMMON,global,class=COMMON,space=1,delta=1
    11                           	psect	cstackBANK0,global,class=BANK0,space=1,delta=1
    12                           	psect	maintext,global,class=CODE,merge=1,split=1,delta=2
    13                           	psect	text1,local,class=CODE,merge=1,delta=2,group=2
    14                           	psect	text2,local,class=CODE,merge=1,delta=2
    15                           	psect	text3,local,class=CODE,merge=1,delta=2
    16                           	psect	text4,local,class=CODE,merge=1,delta=2
    17                           	psect	text5,local,class=CODE,merge=1,delta=2
    18                           	psect	text6,local,class=CODE,merge=1,delta=2
    19                           	psect	text7,local,class=CODE,merge=1,delta=2
    20                           	psect	text8,local,class=CODE,merge=1,delta=2
    21                           	psect	text9,local,class=CODE,merge=1,delta=2
    22                           	psect	text10,local,class=CODE,merge=1,delta=2
    23                           	psect	text11,local,class=CODE,merge=1,delta=2
    24                           	psect	text12,local,class=CODE,merge=1,delta=2
    25                           	psect	text13,local,class=CODE,merge=1,delta=2
    26                           	dabs	1,0x7E,2
    27  0000                     
    28                           ; Version 2.05
    29                           ; Generated 20/12/2018 GMT
    30                           ; 
    31                           ; Copyright © 2018, Microchip Technology Inc. and its subsidiaries ("Microchip")
    32                           ; All rights reserved.
    33                           ; 
    34                           ; This software is developed by Microchip Technology Inc. and its subsidiaries ("Microch
      +                          ip").
    35                           ; 
    36                           ; Redistribution and use in source and binary forms, with or without modification, are
    37                           ; permitted provided that the following conditions are met:
    38                           ; 
    39                           ;     1. Redistributions of source code must retain the above copyright notice, this lis
      +                          t of
    40                           ;        conditions and the following disclaimer.
    41                           ; 
    42                           ;     2. Redistributions in binary form must reproduce the above copyright notice, this 
      +                          list
    43                           ;        of conditions and the following disclaimer in the documentation and/or other
    44                           ;        materials provided with the distribution.
    45                           ; 
    46                           ;     3. Microchip's name may not be used to endorse or promote products derived from th
      +                          is
    47                           ;        software without specific prior written permission.
    48                           ; 
    49                           ; THIS SOFTWARE IS PROVIDED BY MICROCHIP "AS IS" AND ANY EXPRESS OR IMPLIED WARRANTIES,
    50                           ; INCLUDING, BUT NOT LIMITED TO, THE IMPLIED WARRANTIES OF MERCHANTABILITY AND FITNESS F
      +                          OR
    51                           ; PURPOSE ARE DISCLAIMED.  IN NO EVENT SHALL MICROCHIP BE LIABLE FOR ANY DIRECT, INDIREC
      +                          T,
    52                           ; INCIDENTAL, SPECIAL, EXEMPLARY, OR CONSEQUENTIAL DAMAGES (INCLUDING BUT NOT LIMITED TO
    53                           ; PROCUREMENT OF SUBSTITUTE GOODS OR SERVICES; LOSS OF USE, DATA OR PROFITS; OR BUSINESS
    54                           ; INTERRUPTION) HOWSOEVER CAUSED AND ON ANY THEORY OF LIABILITY, WHETHER IN CONTRACT, ST
      +                          RICT
    55                           ; LIABILITY, OR TORT (INCLUDING NEGLIGENCE OR OTHERWISE) ARISING IN ANY WAY OUT OF THE U
      +                          SE OF
    56                           ; THIS SOFTWARE, EVEN IF ADVISED OF THE POSSIBILITY OF SUCH DAMAGE.
    57                           ; 
    58                           ; 
    59                           ; Code-generator required, PIC16F1619 Definitions
    60                           ; 
    61                           ; SFR Addresses
    62  0000                     	;# 
    63  0001                     	;# 
    64  0002                     	;# 
    65  0003                     	;# 
    66  0004                     	;# 
    67  0005                     	;# 
    68  0006                     	;# 
    69  0007                     	;# 
    70  0008                     	;# 
    71  0009                     	;# 
    72  000A                     	;# 
    73  000B                     	;# 
    74  000C                     	;# 
    75  000D                     	;# 
    76  000E                     	;# 
    77  0010                     	;# 
    78  0011                     	;# 
    79  0012                     	;# 
    80  0013                     	;# 
    81  0014                     	;# 
    82  0015                     	;# 
    83  0016                     	;# 
    84  0016                     	;# 
    85  0017                     	;# 
    86  0018                     	;# 
    87  0019                     	;# 
    88  001A                     	;# 
    89  001A                     	;# 
    90  001B                     	;# 
    91  001B                     	;# 
    92  001C                     	;# 
    93  001D                     	;# 
    94  001E                     	;# 
    95  001F                     	;# 
    96  008C                     	;# 
    97  008D                     	;# 
    98  008E                     	;# 
    99  0090                     	;# 
   100  0091                     	;# 
   101  0092                     	;# 
   102  0093                     	;# 
   103  0094                     	;# 
   104  0095                     	;# 
   105  0096                     	;# 
   106  0098                     	;# 
   107  0099                     	;# 
   108  009A                     	;# 
   109  009B                     	;# 
   110  009B                     	;# 
   111  009C                     	;# 
   112  009D                     	;# 
   113  009E                     	;# 
   114  009F                     	;# 
   115  010C                     	;# 
   116  010D                     	;# 
   117  010E                     	;# 
   118  0111                     	;# 
   119  0112                     	;# 
   120  0113                     	;# 
   121  0114                     	;# 
   122  0115                     	;# 
   123  0116                     	;# 
   124  0117                     	;# 
   125  0118                     	;# 
   126  0119                     	;# 
   127  011C                     	;# 
   128  018C                     	;# 
   129  018D                     	;# 
   130  018E                     	;# 
   131  0191                     	;# 
   132  0191                     	;# 
   133  0192                     	;# 
   134  0193                     	;# 
   135  0193                     	;# 
   136  0194                     	;# 
   137  0195                     	;# 
   138  0196                     	;# 
   139  0197                     	;# 
   140  0199                     	;# 
   141  0199                     	;# 
   142  0199                     	;# 
   143  019A                     	;# 
   144  019A                     	;# 
   145  019A                     	;# 
   146  019B                     	;# 
   147  019B                     	;# 
   148  019B                     	;# 
   149  019B                     	;# 
   150  019B                     	;# 
   151  019C                     	;# 
   152  019C                     	;# 
   153  019C                     	;# 
   154  019D                     	;# 
   155  019D                     	;# 
   156  019D                     	;# 
   157  019E                     	;# 
   158  019E                     	;# 
   159  019E                     	;# 
   160  019F                     	;# 
   161  019F                     	;# 
   162  019F                     	;# 
   163  019F                     	;# 
   164  019F                     	;# 
   165  020C                     	;# 
   166  020D                     	;# 
   167  020E                     	;# 
   168  0211                     	;# 
   169  0211                     	;# 
   170  0212                     	;# 
   171  0212                     	;# 
   172  0213                     	;# 
   173  0213                     	;# 
   174  0214                     	;# 
   175  0214                     	;# 
   176  0215                     	;# 
   177  0215                     	;# 
   178  0215                     	;# 
   179  0215                     	;# 
   180  0216                     	;# 
   181  0216                     	;# 
   182  0217                     	;# 
   183  0217                     	;# 
   184  028C                     	;# 
   185  028D                     	;# 
   186  028E                     	;# 
   187  0291                     	;# 
   188  0291                     	;# 
   189  0292                     	;# 
   190  0293                     	;# 
   191  0294                     	;# 
   192  0298                     	;# 
   193  0298                     	;# 
   194  0299                     	;# 
   195  029A                     	;# 
   196  029B                     	;# 
   197  029E                     	;# 
   198  030C                     	;# 
   199  030D                     	;# 
   200  030E                     	;# 
   201  038C                     	;# 
   202  038D                     	;# 
   203  038E                     	;# 
   204  0391                     	;# 
   205  0392                     	;# 
   206  0393                     	;# 
   207  0394                     	;# 
   208  0395                     	;# 
   209  0396                     	;# 
   210  0397                     	;# 
   211  0398                     	;# 
   212  0399                     	;# 
   213  040E                     	;# 
   214  0413                     	;# 
   215  0413                     	;# 
   216  0414                     	;# 
   217  0414                     	;# 
   218  0415                     	;# 
   219  0416                     	;# 
   220  0417                     	;# 
   221  0418                     	;# 
   222  041A                     	;# 
   223  041A                     	;# 
   224  041B                     	;# 
   225  041B                     	;# 
   226  041C                     	;# 
   227  041D                     	;# 
   228  041E                     	;# 
   229  041F                     	;# 
   230  0493                     	;# 
   231  0494                     	;# 
   232  0495                     	;# 
   233  0496                     	;# 
   234  049A                     	;# 
   235  049B                     	;# 
   236  049C                     	;# 
   237  049D                     	;# 
   238  058C                     	;# 
   239  058C                     	;# 
   240  058D                     	;# 
   241  058E                     	;# 
   242  058E                     	;# 
   243  058F                     	;# 
   244  0590                     	;# 
   245  0590                     	;# 
   246  0591                     	;# 
   247  0592                     	;# 
   248  0592                     	;# 
   249  0593                     	;# 
   250  0594                     	;# 
   251  0594                     	;# 
   252  0595                     	;# 
   253  0596                     	;# 
   254  0596                     	;# 
   255  0597                     	;# 
   256  0598                     	;# 
   257  0599                     	;# 
   258  059A                     	;# 
   259  059B                     	;# 
   260  059B                     	;# 
   261  059C                     	;# 
   262  059D                     	;# 
   263  060C                     	;# 
   264  060C                     	;# 
   265  060D                     	;# 
   266  060E                     	;# 
   267  060F                     	;# 
   268  060F                     	;# 
   269  0610                     	;# 
   270  0611                     	;# 
   271  0612                     	;# 
   272  0613                     	;# 
   273  0614                     	;# 
   274  0617                     	;# 
   275  0617                     	;# 
   276  0618                     	;# 
   277  0619                     	;# 
   278  061A                     	;# 
   279  061A                     	;# 
   280  061B                     	;# 
   281  061C                     	;# 
   282  0691                     	;# 
   283  0692                     	;# 
   284  0693                     	;# 
   285  0694                     	;# 
   286  0695                     	;# 
   287  0696                     	;# 
   288  0697                     	;# 
   289  0699                     	;# 
   290  069A                     	;# 
   291  0711                     	;# 
   292  0712                     	;# 
   293  0713                     	;# 
   294  0714                     	;# 
   295  0715                     	;# 
   296  0718                     	;# 
   297  0718                     	;# 
   298  0719                     	;# 
   299  071A                     	;# 
   300  071A                     	;# 
   301  071B                     	;# 
   302  071C                     	;# 
   303  071D                     	;# 
   304  0791                     	;# 
   305  0791                     	;# 
   306  0792                     	;# 
   307  0793                     	;# 
   308  0793                     	;# 
   309  0794                     	;# 
   310  0795                     	;# 
   311  0795                     	;# 
   312  0796                     	;# 
   313  0797                     	;# 
   314  0797                     	;# 
   315  0798                     	;# 
   316  0799                     	;# 
   317  079A                     	;# 
   318  080C                     	;# 
   319  080C                     	;# 
   320  080D                     	;# 
   321  080E                     	;# 
   322  080E                     	;# 
   323  080F                     	;# 
   324  0810                     	;# 
   325  0810                     	;# 
   326  0811                     	;# 
   327  0812                     	;# 
   328  0812                     	;# 
   329  0813                     	;# 
   330  0814                     	;# 
   331  0815                     	;# 
   332  0816                     	;# 
   333  0817                     	;# 
   334  0818                     	;# 
   335  0819                     	;# 
   336  081A                     	;# 
   337  081A                     	;# 
   338  081B                     	;# 
   339  081C                     	;# 
   340  081C                     	;# 
   341  081D                     	;# 
   342  088C                     	;# 
   343  088D                     	;# 
   344  088E                     	;# 
   345  088F                     	;# 
   346  088F                     	;# 
   347  0890                     	;# 
   348  0891                     	;# 
   349  0892                     	;# 
   350  0893                     	;# 
   351  0893                     	;# 
   352  0894                     	;# 
   353  0895                     	;# 
   354  0896                     	;# 
   355  0897                     	;# 
   356  0897                     	;# 
   357  0898                     	;# 
   358  0899                     	;# 
   359  0D8C                     	;# 
   360  0D8C                     	;# 
   361  0D8D                     	;# 
   362  0D8E                     	;# 
   363  0D8F                     	;# 
   364  0D8F                     	;# 
   365  0D90                     	;# 
   366  0D91                     	;# 
   367  0D92                     	;# 
   368  0D92                     	;# 
   369  0D93                     	;# 
   370  0D94                     	;# 
   371  0D95                     	;# 
   372  0D95                     	;# 
   373  0D96                     	;# 
   374  0D97                     	;# 
   375  0D98                     	;# 
   376  0D99                     	;# 
   377  0D9A                     	;# 
   378  0D9B                     	;# 
   379  0D9C                     	;# 
   380  0D9D                     	;# 
   381  0D9E                     	;# 
   382  0D9E                     	;# 
   383  0D9F                     	;# 
   384  0DA0                     	;# 
   385  0DA1                     	;# 
   386  0DA1                     	;# 
   387  0DA2                     	;# 
   388  0DA3                     	;# 
   389  0DA4                     	;# 
   390  0DA4                     	;# 
   391  0DA5                     	;# 
   392  0DA6                     	;# 
   393  0DA7                     	;# 
   394  0DA7                     	;# 
   395  0DA8                     	;# 
   396  0DA9                     	;# 
   397  0DAA                     	;# 
   398  0DAB                     	;# 
   399  0DAC                     	;# 
   400  0DAD                     	;# 
   401  0DAE                     	;# 
   402  0DAF                     	;# 
   403  0E0F                     	;# 
   404  0E10                     	;# 
   405  0E11                     	;# 
   406  0E12                     	;# 
   407  0E13                     	;# 
   408  0E14                     	;# 
   409  0E15                     	;# 
   410  0E16                     	;# 
   411  0E17                     	;# 
   412  0E18                     	;# 
   413  0E19                     	;# 
   414  0E1A                     	;# 
   415  0E1B                     	;# 
   416  0E1C                     	;# 
   417  0E1D                     	;# 
   418  0E1E                     	;# 
   419  0E1F                     	;# 
   420  0E20                     	;# 
   421  0E21                     	;# 
   422  0E22                     	;# 
   423  0E23                     	;# 
   424  0E24                     	;# 
   425  0E25                     	;# 
   426  0E26                     	;# 
   427  0E27                     	;# 
   428  0E28                     	;# 
   429  0E29                     	;# 
   430  0E2A                     	;# 
   431  0E2B                     	;# 
   432  0E2C                     	;# 
   433  0E2D                     	;# 
   434  0E2E                     	;# 
   435  0E90                     	;# 
   436  0E91                     	;# 
   437  0E92                     	;# 
   438  0E94                     	;# 
   439  0E95                     	;# 
   440  0E9C                     	;# 
   441  0E9D                     	;# 
   442  0E9E                     	;# 
   443  0E9F                     	;# 
   444  0EA0                     	;# 
   445  0EA1                     	;# 
   446  0EA2                     	;# 
   447  0EA3                     	;# 
   448  0EA4                     	;# 
   449  0EA5                     	;# 
   450  0EA6                     	;# 
   451  0EA7                     	;# 
   452  0F0F                     	;# 
   453  0F10                     	;# 
   454  0F11                     	;# 
   455  0F12                     	;# 
   456  0F13                     	;# 
   457  0F14                     	;# 
   458  0F15                     	;# 
   459  0F16                     	;# 
   460  0F17                     	;# 
   461  0F18                     	;# 
   462  0F19                     	;# 
   463  0F1A                     	;# 
   464  0F1B                     	;# 
   465  0F1C                     	;# 
   466  0F1D                     	;# 
   467  0F1E                     	;# 
   468  0F1F                     	;# 
   469  0F20                     	;# 
   470  0F21                     	;# 
   471  0F22                     	;# 
   472  0F23                     	;# 
   473  0F24                     	;# 
   474  0F25                     	;# 
   475  0F26                     	;# 
   476  0F27                     	;# 
   477  0F28                     	;# 
   478  0F29                     	;# 
   479  0F2A                     	;# 
   480  0F2B                     	;# 
   481  0F2C                     	;# 
   482  0F2D                     	;# 
   483  0F2E                     	;# 
   484  0F2F                     	;# 
   485  0F30                     	;# 
   486  0F31                     	;# 
   487  0F32                     	;# 
   488  0F33                     	;# 
   489  0F34                     	;# 
   490  0F35                     	;# 
   491  0F36                     	;# 
   492  0F37                     	;# 
   493  0FE4                     	;# 
   494  0FE5                     	;# 
   495  0FE6                     	;# 
   496  0FE7                     	;# 
   497  0FE8                     	;# 
   498  0FE9                     	;# 
   499  0FEA                     	;# 
   500  0FEB                     	;# 
   501  0FED                     	;# 
   502  0FEE                     	;# 
   503  0FEF                     	;# 
   504  0000                     	;# 
   505  0001                     	;# 
   506  0002                     	;# 
   507  0003                     	;# 
   508  0004                     	;# 
   509  0005                     	;# 
   510  0006                     	;# 
   511  0007                     	;# 
   512  0008                     	;# 
   513  0009                     	;# 
   514  000A                     	;# 
   515  000B                     	;# 
   516  000C                     	;# 
   517  000D                     	;# 
   518  000E                     	;# 
   519  0010                     	;# 
   520  0011                     	;# 
   521  0012                     	;# 
   522  0013                     	;# 
   523  0014                     	;# 
   524  0015                     	;# 
   525  0016                     	;# 
   526  0016                     	;# 
   527  0017                     	;# 
   528  0018                     	;# 
   529  0019                     	;# 
   530  001A                     	;# 
   531  001A                     	;# 
   532  001B                     	;# 
   533  001B                     	;# 
   534  001C                     	;# 
   535  001D                     	;# 
   536  001E                     	;# 
   537  001F                     	;# 
   538  008C                     	;# 
   539  008D                     	;# 
   540  008E                     	;# 
   541  0090                     	;# 
   542  0091                     	;# 
   543  0092                     	;# 
   544  0093                     	;# 
   545  0094                     	;# 
   546  0095                     	;# 
   547  0096                     	;# 
   548  0098                     	;# 
   549  0099                     	;# 
   550  009A                     	;# 
   551  009B                     	;# 
   552  009B                     	;# 
   553  009C                     	;# 
   554  009D                     	;# 
   555  009E                     	;# 
   556  009F                     	;# 
   557  010C                     	;# 
   558  010D                     	;# 
   559  010E                     	;# 
   560  0111                     	;# 
   561  0112                     	;# 
   562  0113                     	;# 
   563  0114                     	;# 
   564  0115                     	;# 
   565  0116                     	;# 
   566  0117                     	;# 
   567  0118                     	;# 
   568  0119                     	;# 
   569  011C                     	;# 
   570  018C                     	;# 
   571  018D                     	;# 
   572  018E                     	;# 
   573  0191                     	;# 
   574  0191                     	;# 
   575  0192                     	;# 
   576  0193                     	;# 
   577  0193                     	;# 
   578  0194                     	;# 
   579  0195                     	;# 
   580  0196                     	;# 
   581  0197                     	;# 
   582  0199                     	;# 
   583  0199                     	;# 
   584  0199                     	;# 
   585  019A                     	;# 
   586  019A                     	;# 
   587  019A                     	;# 
   588  019B                     	;# 
   589  019B                     	;# 
   590  019B                     	;# 
   591  019B                     	;# 
   592  019B                     	;# 
   593  019C                     	;# 
   594  019C                     	;# 
   595  019C                     	;# 
   596  019D                     	;# 
   597  019D                     	;# 
   598  019D                     	;# 
   599  019E                     	;# 
   600  019E                     	;# 
   601  019E                     	;# 
   602  019F                     	;# 
   603  019F                     	;# 
   604  019F                     	;# 
   605  019F                     	;# 
   606  019F                     	;# 
   607  020C                     	;# 
   608  020D                     	;# 
   609  020E                     	;# 
   610  0211                     	;# 
   611  0211                     	;# 
   612  0212                     	;# 
   613  0212                     	;# 
   614  0213                     	;# 
   615  0213                     	;# 
   616  0214                     	;# 
   617  0214                     	;# 
   618  0215                     	;# 
   619  0215                     	;# 
   620  0215                     	;# 
   621  0215                     	;# 
   622  0216                     	;# 
   623  0216                     	;# 
   624  0217                     	;# 
   625  0217                     	;# 
   626  028C                     	;# 
   627  028D                     	;# 
   628  028E                     	;# 
   629  0291                     	;# 
   630  0291                     	;# 
   631  0292                     	;# 
   632  0293                     	;# 
   633  0294                     	;# 
   634  0298                     	;# 
   635  0298                     	;# 
   636  0299                     	;# 
   637  029A                     	;# 
   638  029B                     	;# 
   639  029E                     	;# 
   640  030C                     	;# 
   641  030D                     	;# 
   642  030E                     	;# 
   643  038C                     	;# 
   644  038D                     	;# 
   645  038E                     	;# 
   646  0391                     	;# 
   647  0392                     	;# 
   648  0393                     	;# 
   649  0394                     	;# 
   650  0395                     	;# 
   651  0396                     	;# 
   652  0397                     	;# 
   653  0398                     	;# 
   654  0399                     	;# 
   655  040E                     	;# 
   656  0413                     	;# 
   657  0413                     	;# 
   658  0414                     	;# 
   659  0414                     	;# 
   660  0415                     	;# 
   661  0416                     	;# 
   662  0417                     	;# 
   663  0418                     	;# 
   664  041A                     	;# 
   665  041A                     	;# 
   666  041B                     	;# 
   667  041B                     	;# 
   668  041C                     	;# 
   669  041D                     	;# 
   670  041E                     	;# 
   671  041F                     	;# 
   672  0493                     	;# 
   673  0494                     	;# 
   674  0495                     	;# 
   675  0496                     	;# 
   676  049A                     	;# 
   677  049B                     	;# 
   678  049C                     	;# 
   679  049D                     	;# 
   680  058C                     	;# 
   681  058C                     	;# 
   682  058D                     	;# 
   683  058E                     	;# 
   684  058E                     	;# 
   685  058F                     	;# 
   686  0590                     	;# 
   687  0590                     	;# 
   688  0591                     	;# 
   689  0592                     	;# 
   690  0592                     	;# 
   691  0593                     	;# 
   692  0594                     	;# 
   693  0594                     	;# 
   694  0595                     	;# 
   695  0596                     	;# 
   696  0596                     	;# 
   697  0597                     	;# 
   698  0598                     	;# 
   699  0599                     	;# 
   700  059A                     	;# 
   701  059B                     	;# 
   702  059B                     	;# 
   703  059C                     	;# 
   704  059D                     	;# 
   705  060C                     	;# 
   706  060C                     	;# 
   707  060D                     	;# 
   708  060E                     	;# 
   709  060F                     	;# 
   710  060F                     	;# 
   711  0610                     	;# 
   712  0611                     	;# 
   713  0612                     	;# 
   714  0613                     	;# 
   715  0614                     	;# 
   716  0617                     	;# 
   717  0617                     	;# 
   718  0618                     	;# 
   719  0619                     	;# 
   720  061A                     	;# 
   721  061A                     	;# 
   722  061B                     	;# 
   723  061C                     	;# 
   724  0691                     	;# 
   725  0692                     	;# 
   726  0693                     	;# 
   727  0694                     	;# 
   728  0695                     	;# 
   729  0696                     	;# 
   730  0697                     	;# 
   731  0699                     	;# 
   732  069A                     	;# 
   733  0711                     	;# 
   734  0712                     	;# 
   735  0713                     	;# 
   736  0714                     	;# 
   737  0715                     	;# 
   738  0718                     	;# 
   739  0718                     	;# 
   740  0719                     	;# 
   741  071A                     	;# 
   742  071A                     	;# 
   743  071B                     	;# 
   744  071C                     	;# 
   745  071D                     	;# 
   746  0791                     	;# 
   747  0791                     	;# 
   748  0792                     	;# 
   749  0793                     	;# 
   750  0793                     	;# 
   751  0794                     	;# 
   752  0795                     	;# 
   753  0795                     	;# 
   754  0796                     	;# 
   755  0797                     	;# 
   756  0797                     	;# 
   757  0798                     	;# 
   758  0799                     	;# 
   759  079A                     	;# 
   760  080C                     	;# 
   761  080C                     	;# 
   762  080D                     	;# 
   763  080E                     	;# 
   764  080E                     	;# 
   765  080F                     	;# 
   766  0810                     	;# 
   767  0810                     	;# 
   768  0811                     	;# 
   769  0812                     	;# 
   770  0812                     	;# 
   771  0813                     	;# 
   772  0814                     	;# 
   773  0815                     	;# 
   774  0816                     	;# 
   775  0817                     	;# 
   776  0818                     	;# 
   777  0819                     	;# 
   778  081A                     	;# 
   779  081A                     	;# 
   780  081B                     	;# 
   781  081C                     	;# 
   782  081C                     	;# 
   783  081D                     	;# 
   784  088C                     	;# 
   785  088D                     	;# 
   786  088E                     	;# 
   787  088F                     	;# 
   788  088F                     	;# 
   789  0890                     	;# 
   790  0891                     	;# 
   791  0892                     	;# 
   792  0893                     	;# 
   793  0893                     	;# 
   794  0894                     	;# 
   795  0895                     	;# 
   796  0896                     	;# 
   797  0897                     	;# 
   798  0897                     	;# 
   799  0898                     	;# 
   800  0899                     	;# 
   801  0D8C                     	;# 
   802  0D8C                     	;# 
   803  0D8D                     	;# 
   804  0D8E                     	;# 
   805  0D8F                     	;# 
   806  0D8F                     	;# 
   807  0D90                     	;# 
   808  0D91                     	;# 
   809  0D92                     	;# 
   810  0D92                     	;# 
   811  0D93                     	;# 
   812  0D94                     	;# 
   813  0D95                     	;# 
   814  0D95                     	;# 
   815  0D96                     	;# 
   816  0D97                     	;# 
   817  0D98                     	;# 
   818  0D99                     	;# 
   819  0D9A                     	;# 
   820  0D9B                     	;# 
   821  0D9C                     	;# 
   822  0D9D                     	;# 
   823  0D9E                     	;# 
   824  0D9E                     	;# 
   825  0D9F                     	;# 
   826  0DA0                     	;# 
   827  0DA1                     	;# 
   828  0DA1                     	;# 
   829  0DA2                     	;# 
   830  0DA3                     	;# 
   831  0DA4                     	;# 
   832  0DA4                     	;# 
   833  0DA5                     	;# 
   834  0DA6                     	;# 
   835  0DA7                     	;# 
   836  0DA7                     	;# 
   837  0DA8                     	;# 
   838  0DA9                     	;# 
   839  0DAA                     	;# 
   840  0DAB                     	;# 
   841  0DAC                     	;# 
   842  0DAD                     	;# 
   843  0DAE                     	;# 
   844  0DAF                     	;# 
   845  0E0F                     	;# 
   846  0E10                     	;# 
   847  0E11                     	;# 
   848  0E12                     	;# 
   849  0E13                     	;# 
   850  0E14                     	;# 
   851  0E15                     	;# 
   852  0E16                     	;# 
   853  0E17                     	;# 
   854  0E18                     	;# 
   855  0E19                     	;# 
   856  0E1A                     	;# 
   857  0E1B                     	;# 
   858  0E1C                     	;# 
   859  0E1D                     	;# 
   860  0E1E                     	;# 
   861  0E1F                     	;# 
   862  0E20                     	;# 
   863  0E21                     	;# 
   864  0E22                     	;# 
   865  0E23                     	;# 
   866  0E24                     	;# 
   867  0E25                     	;# 
   868  0E26                     	;# 
   869  0E27                     	;# 
   870  0E28                     	;# 
   871  0E29                     	;# 
   872  0E2A                     	;# 
   873  0E2B                     	;# 
   874  0E2C                     	;# 
   875  0E2D                     	;# 
   876  0E2E                     	;# 
   877  0E90                     	;# 
   878  0E91                     	;# 
   879  0E92                     	;# 
   880  0E94                     	;# 
   881  0E95                     	;# 
   882  0E9C                     	;# 
   883  0E9D                     	;# 
   884  0E9E                     	;# 
   885  0E9F                     	;# 
   886  0EA0                     	;# 
   887  0EA1                     	;# 
   888  0EA2                     	;# 
   889  0EA3                     	;# 
   890  0EA4                     	;# 
   891  0EA5                     	;# 
   892  0EA6                     	;# 
   893  0EA7                     	;# 
   894  0F0F                     	;# 
   895  0F10                     	;# 
   896  0F11                     	;# 
   897  0F12                     	;# 
   898  0F13                     	;# 
   899  0F14                     	;# 
   900  0F15                     	;# 
   901  0F16                     	;# 
   902  0F17                     	;# 
   903  0F18                     	;# 
   904  0F19                     	;# 
   905  0F1A                     	;# 
   906  0F1B                     	;# 
   907  0F1C                     	;# 
   908  0F1D                     	;# 
   909  0F1E                     	;# 
   910  0F1F                     	;# 
   911  0F20                     	;# 
   912  0F21                     	;# 
   913  0F22                     	;# 
   914  0F23                     	;# 
   915  0F24                     	;# 
   916  0F25                     	;# 
   917  0F26                     	;# 
   918  0F27                     	;# 
   919  0F28                     	;# 
   920  0F29                     	;# 
   921  0F2A                     	;# 
   922  0F2B                     	;# 
   923  0F2C                     	;# 
   924  0F2D                     	;# 
   925  0F2E                     	;# 
   926  0F2F                     	;# 
   927  0F30                     	;# 
   928  0F31                     	;# 
   929  0F32                     	;# 
   930  0F33                     	;# 
   931  0F34                     	;# 
   932  0F35                     	;# 
   933  0F36                     	;# 
   934  0F37                     	;# 
   935  0FE4                     	;# 
   936  0FE5                     	;# 
   937  0FE6                     	;# 
   938  0FE7                     	;# 
   939  0FE8                     	;# 
   940  0FE9                     	;# 
   941  0FEA                     	;# 
   942  0FEB                     	;# 
   943  0FED                     	;# 
   944  0FEE                     	;# 
   945  0FEF                     	;# 
   946  0000                     	;# 
   947  0001                     	;# 
   948  0002                     	;# 
   949  0003                     	;# 
   950  0004                     	;# 
   951  0005                     	;# 
   952  0006                     	;# 
   953  0007                     	;# 
   954  0008                     	;# 
   955  0009                     	;# 
   956  000A                     	;# 
   957  000B                     	;# 
   958  000C                     	;# 
   959  000D                     	;# 
   960  000E                     	;# 
   961  0010                     	;# 
   962  0011                     	;# 
   963  0012                     	;# 
   964  0013                     	;# 
   965  0014                     	;# 
   966  0015                     	;# 
   967  0016                     	;# 
   968  0016                     	;# 
   969  0017                     	;# 
   970  0018                     	;# 
   971  0019                     	;# 
   972  001A                     	;# 
   973  001A                     	;# 
   974  001B                     	;# 
   975  001B                     	;# 
   976  001C                     	;# 
   977  001D                     	;# 
   978  001E                     	;# 
   979  001F                     	;# 
   980  008C                     	;# 
   981  008D                     	;# 
   982  008E                     	;# 
   983  0090                     	;# 
   984  0091                     	;# 
   985  0092                     	;# 
   986  0093                     	;# 
   987  0094                     	;# 
   988  0095                     	;# 
   989  0096                     	;# 
   990  0098                     	;# 
   991  0099                     	;# 
   992  009A                     	;# 
   993  009B                     	;# 
   994  009B                     	;# 
   995  009C                     	;# 
   996  009D                     	;# 
   997  009E                     	;# 
   998  009F                     	;# 
   999  010C                     	;# 
  1000  010D                     	;# 
  1001  010E                     	;# 
  1002  0111                     	;# 
  1003  0112                     	;# 
  1004  0113                     	;# 
  1005  0114                     	;# 
  1006  0115                     	;# 
  1007  0116                     	;# 
  1008  0117                     	;# 
  1009  0118                     	;# 
  1010  0119                     	;# 
  1011  011C                     	;# 
  1012  018C                     	;# 
  1013  018D                     	;# 
  1014  018E                     	;# 
  1015  0191                     	;# 
  1016  0191                     	;# 
  1017  0192                     	;# 
  1018  0193                     	;# 
  1019  0193                     	;# 
  1020  0194                     	;# 
  1021  0195                     	;# 
  1022  0196                     	;# 
  1023  0197                     	;# 
  1024  0199                     	;# 
  1025  0199                     	;# 
  1026  0199                     	;# 
  1027  019A                     	;# 
  1028  019A                     	;# 
  1029  019A                     	;# 
  1030  019B                     	;# 
  1031  019B                     	;# 
  1032  019B                     	;# 
  1033  019B                     	;# 
  1034  019B                     	;# 
  1035  019C                     	;# 
  1036  019C                     	;# 
  1037  019C                     	;# 
  1038  019D                     	;# 
  1039  019D                     	;# 
  1040  019D                     	;# 
  1041  019E                     	;# 
  1042  019E                     	;# 
  1043  019E                     	;# 
  1044  019F                     	;# 
  1045  019F                     	;# 
  1046  019F                     	;# 
  1047  019F                     	;# 
  1048  019F                     	;# 
  1049  020C                     	;# 
  1050  020D                     	;# 
  1051  020E                     	;# 
  1052  0211                     	;# 
  1053  0211                     	;# 
  1054  0212                     	;# 
  1055  0212                     	;# 
  1056  0213                     	;# 
  1057  0213                     	;# 
  1058  0214                     	;# 
  1059  0214                     	;# 
  1060  0215                     	;# 
  1061  0215                     	;# 
  1062  0215                     	;# 
  1063  0215                     	;# 
  1064  0216                     	;# 
  1065  0216                     	;# 
  1066  0217                     	;# 
  1067  0217                     	;# 
  1068  028C                     	;# 
  1069  028D                     	;# 
  1070  028E                     	;# 
  1071  0291                     	;# 
  1072  0291                     	;# 
  1073  0292                     	;# 
  1074  0293                     	;# 
  1075  0294                     	;# 
  1076  0298                     	;# 
  1077  0298                     	;# 
  1078  0299                     	;# 
  1079  029A                     	;# 
  1080  029B                     	;# 
  1081  029E                     	;# 
  1082  030C                     	;# 
  1083  030D                     	;# 
  1084  030E                     	;# 
  1085  038C                     	;# 
  1086  038D                     	;# 
  1087  038E                     	;# 
  1088  0391                     	;# 
  1089  0392                     	;# 
  1090  0393                     	;# 
  1091  0394                     	;# 
  1092  0395                     	;# 
  1093  0396                     	;# 
  1094  0397                     	;# 
  1095  0398                     	;# 
  1096  0399                     	;# 
  1097  040E                     	;# 
  1098  0413                     	;# 
  1099  0413                     	;# 
  1100  0414                     	;# 
  1101  0414                     	;# 
  1102  0415                     	;# 
  1103  0416                     	;# 
  1104  0417                     	;# 
  1105  0418                     	;# 
  1106  041A                     	;# 
  1107  041A                     	;# 
  1108  041B                     	;# 
  1109  041B                     	;# 
  1110  041C                     	;# 
  1111  041D                     	;# 
  1112  041E                     	;# 
  1113  041F                     	;# 
  1114  0493                     	;# 
  1115  0494                     	;# 
  1116  0495                     	;# 
  1117  0496                     	;# 
  1118  049A                     	;# 
  1119  049B                     	;# 
  1120  049C                     	;# 
  1121  049D                     	;# 
  1122  058C                     	;# 
  1123  058C                     	;# 
  1124  058D                     	;# 
  1125  058E                     	;# 
  1126  058E                     	;# 
  1127  058F                     	;# 
  1128  0590                     	;# 
  1129  0590                     	;# 
  1130  0591                     	;# 
  1131  0592                     	;# 
  1132  0592                     	;# 
  1133  0593                     	;# 
  1134  0594                     	;# 
  1135  0594                     	;# 
  1136  0595                     	;# 
  1137  0596                     	;# 
  1138  0596                     	;# 
  1139  0597                     	;# 
  1140  0598                     	;# 
  1141  0599                     	;# 
  1142  059A                     	;# 
  1143  059B                     	;# 
  1144  059B                     	;# 
  1145  059C                     	;# 
  1146  059D                     	;# 
  1147  060C                     	;# 
  1148  060C                     	;# 
  1149  060D                     	;# 
  1150  060E                     	;# 
  1151  060F                     	;# 
  1152  060F                     	;# 
  1153  0610                     	;# 
  1154  0611                     	;# 
  1155  0612                     	;# 
  1156  0613                     	;# 
  1157  0614                     	;# 
  1158  0617                     	;# 
  1159  0617                     	;# 
  1160  0618                     	;# 
  1161  0619                     	;# 
  1162  061A                     	;# 
  1163  061A                     	;# 
  1164  061B                     	;# 
  1165  061C                     	;# 
  1166  0691                     	;# 
  1167  0692                     	;# 
  1168  0693                     	;# 
  1169  0694                     	;# 
  1170  0695                     	;# 
  1171  0696                     	;# 
  1172  0697                     	;# 
  1173  0699                     	;# 
  1174  069A                     	;# 
  1175  0711                     	;# 
  1176  0712                     	;# 
  1177  0713                     	;# 
  1178  0714                     	;# 
  1179  0715                     	;# 
  1180  0718                     	;# 
  1181  0718                     	;# 
  1182  0719                     	;# 
  1183  071A                     	;# 
  1184  071A                     	;# 
  1185  071B                     	;# 
  1186  071C                     	;# 
  1187  071D                     	;# 
  1188  0791                     	;# 
  1189  0791                     	;# 
  1190  0792                     	;# 
  1191  0793                     	;# 
  1192  0793                     	;# 
  1193  0794                     	;# 
  1194  0795                     	;# 
  1195  0795                     	;# 
  1196  0796                     	;# 
  1197  0797                     	;# 
  1198  0797                     	;# 
  1199  0798                     	;# 
  1200  0799                     	;# 
  1201  079A                     	;# 
  1202  080C                     	;# 
  1203  080C                     	;# 
  1204  080D                     	;# 
  1205  080E                     	;# 
  1206  080E                     	;# 
  1207  080F                     	;# 
  1208  0810                     	;# 
  1209  0810                     	;# 
  1210  0811                     	;# 
  1211  0812                     	;# 
  1212  0812                     	;# 
  1213  0813                     	;# 
  1214  0814                     	;# 
  1215  0815                     	;# 
  1216  0816                     	;# 
  1217  0817                     	;# 
  1218  0818                     	;# 
  1219  0819                     	;# 
  1220  081A                     	;# 
  1221  081A                     	;# 
  1222  081B                     	;# 
  1223  081C                     	;# 
  1224  081C                     	;# 
  1225  081D                     	;# 
  1226  088C                     	;# 
  1227  088D                     	;# 
  1228  088E                     	;# 
  1229  088F                     	;# 
  1230  088F                     	;# 
  1231  0890                     	;# 
  1232  0891                     	;# 
  1233  0892                     	;# 
  1234  0893                     	;# 
  1235  0893                     	;# 
  1236  0894                     	;# 
  1237  0895                     	;# 
  1238  0896                     	;# 
  1239  0897                     	;# 
  1240  0897                     	;# 
  1241  0898                     	;# 
  1242  0899                     	;# 
  1243  0D8C                     	;# 
  1244  0D8C                     	;# 
  1245  0D8D                     	;# 
  1246  0D8E                     	;# 
  1247  0D8F                     	;# 
  1248  0D8F                     	;# 
  1249  0D90                     	;# 
  1250  0D91                     	;# 
  1251  0D92                     	;# 
  1252  0D92                     	;# 
  1253  0D93                     	;# 
  1254  0D94                     	;# 
  1255  0D95                     	;# 
  1256  0D95                     	;# 
  1257  0D96                     	;# 
  1258  0D97                     	;# 
  1259  0D98                     	;# 
  1260  0D99                     	;# 
  1261  0D9A                     	;# 
  1262  0D9B                     	;# 
  1263  0D9C                     	;# 
  1264  0D9D                     	;# 
  1265  0D9E                     	;# 
  1266  0D9E                     	;# 
  1267  0D9F                     	;# 
  1268  0DA0                     	;# 
  1269  0DA1                     	;# 
  1270  0DA1                     	;# 
  1271  0DA2                     	;# 
  1272  0DA3                     	;# 
  1273  0DA4                     	;# 
  1274  0DA4                     	;# 
  1275  0DA5                     	;# 
  1276  0DA6                     	;# 
  1277  0DA7                     	;# 
  1278  0DA7                     	;# 
  1279  0DA8                     	;# 
  1280  0DA9                     	;# 
  1281  0DAA                     	;# 
  1282  0DAB                     	;# 
  1283  0DAC                     	;# 
  1284  0DAD                     	;# 
  1285  0DAE                     	;# 
  1286  0DAF                     	;# 
  1287  0E0F                     	;# 
  1288  0E10                     	;# 
  1289  0E11                     	;# 
  1290  0E12                     	;# 
  1291  0E13                     	;# 
  1292  0E14                     	;# 
  1293  0E15                     	;# 
  1294  0E16                     	;# 
  1295  0E17                     	;# 
  1296  0E18                     	;# 
  1297  0E19                     	;# 
  1298  0E1A                     	;# 
  1299  0E1B                     	;# 
  1300  0E1C                     	;# 
  1301  0E1D                     	;# 
  1302  0E1E                     	;# 
  1303  0E1F                     	;# 
  1304  0E20                     	;# 
  1305  0E21                     	;# 
  1306  0E22                     	;# 
  1307  0E23                     	;# 
  1308  0E24                     	;# 
  1309  0E25                     	;# 
  1310  0E26                     	;# 
  1311  0E27                     	;# 
  1312  0E28                     	;# 
  1313  0E29                     	;# 
  1314  0E2A                     	;# 
  1315  0E2B                     	;# 
  1316  0E2C                     	;# 
  1317  0E2D                     	;# 
  1318  0E2E                     	;# 
  1319  0E90                     	;# 
  1320  0E91                     	;# 
  1321  0E92                     	;# 
  1322  0E94                     	;# 
  1323  0E95                     	;# 
  1324  0E9C                     	;# 
  1325  0E9D                     	;# 
  1326  0E9E                     	;# 
  1327  0E9F                     	;# 
  1328  0EA0                     	;# 
  1329  0EA1                     	;# 
  1330  0EA2                     	;# 
  1331  0EA3                     	;# 
  1332  0EA4                     	;# 
  1333  0EA5                     	;# 
  1334  0EA6                     	;# 
  1335  0EA7                     	;# 
  1336  0F0F                     	;# 
  1337  0F10                     	;# 
  1338  0F11                     	;# 
  1339  0F12                     	;# 
  1340  0F13                     	;# 
  1341  0F14                     	;# 
  1342  0F15                     	;# 
  1343  0F16                     	;# 
  1344  0F17                     	;# 
  1345  0F18                     	;# 
  1346  0F19                     	;# 
  1347  0F1A                     	;# 
  1348  0F1B                     	;# 
  1349  0F1C                     	;# 
  1350  0F1D                     	;# 
  1351  0F1E                     	;# 
  1352  0F1F                     	;# 
  1353  0F20                     	;# 
  1354  0F21                     	;# 
  1355  0F22                     	;# 
  1356  0F23                     	;# 
  1357  0F24                     	;# 
  1358  0F25                     	;# 
  1359  0F26                     	;# 
  1360  0F27                     	;# 
  1361  0F28                     	;# 
  1362  0F29                     	;# 
  1363  0F2A                     	;# 
  1364  0F2B                     	;# 
  1365  0F2C                     	;# 
  1366  0F2D                     	;# 
  1367  0F2E                     	;# 
  1368  0F2F                     	;# 
  1369  0F30                     	;# 
  1370  0F31                     	;# 
  1371  0F32                     	;# 
  1372  0F33                     	;# 
  1373  0F34                     	;# 
  1374  0F35                     	;# 
  1375  0F36                     	;# 
  1376  0F37                     	;# 
  1377  0FE4                     	;# 
  1378  0FE5                     	;# 
  1379  0FE6                     	;# 
  1380  0FE7                     	;# 
  1381  0FE8                     	;# 
  1382  0FE9                     	;# 
  1383  0FEA                     	;# 
  1384  0FEB                     	;# 
  1385  0FED                     	;# 
  1386  0FEE                     	;# 
  1387  0FEF                     	;# 
  1388  0000                     	;# 
  1389  0001                     	;# 
  1390  0002                     	;# 
  1391  0003                     	;# 
  1392  0004                     	;# 
  1393  0005                     	;# 
  1394  0006                     	;# 
  1395  0007                     	;# 
  1396  0008                     	;# 
  1397  0009                     	;# 
  1398  000A                     	;# 
  1399  000B                     	;# 
  1400  000C                     	;# 
  1401  000D                     	;# 
  1402  000E                     	;# 
  1403  0010                     	;# 
  1404  0011                     	;# 
  1405  0012                     	;# 
  1406  0013                     	;# 
  1407  0014                     	;# 
  1408  0015                     	;# 
  1409  0016                     	;# 
  1410  0016                     	;# 
  1411  0017                     	;# 
  1412  0018                     	;# 
  1413  0019                     	;# 
  1414  001A                     	;# 
  1415  001A                     	;# 
  1416  001B                     	;# 
  1417  001B                     	;# 
  1418  001C                     	;# 
  1419  001D                     	;# 
  1420  001E                     	;# 
  1421  001F                     	;# 
  1422  008C                     	;# 
  1423  008D                     	;# 
  1424  008E                     	;# 
  1425  0090                     	;# 
  1426  0091                     	;# 
  1427  0092                     	;# 
  1428  0093                     	;# 
  1429  0094                     	;# 
  1430  0095                     	;# 
  1431  0096                     	;# 
  1432  0098                     	;# 
  1433  0099                     	;# 
  1434  009A                     	;# 
  1435  009B                     	;# 
  1436  009B                     	;# 
  1437  009C                     	;# 
  1438  009D                     	;# 
  1439  009E                     	;# 
  1440  009F                     	;# 
  1441  010C                     	;# 
  1442  010D                     	;# 
  1443  010E                     	;# 
  1444  0111                     	;# 
  1445  0112                     	;# 
  1446  0113                     	;# 
  1447  0114                     	;# 
  1448  0115                     	;# 
  1449  0116                     	;# 
  1450  0117                     	;# 
  1451  0118                     	;# 
  1452  0119                     	;# 
  1453  011C                     	;# 
  1454  018C                     	;# 
  1455  018D                     	;# 
  1456  018E                     	;# 
  1457  0191                     	;# 
  1458  0191                     	;# 
  1459  0192                     	;# 
  1460  0193                     	;# 
  1461  0193                     	;# 
  1462  0194                     	;# 
  1463  0195                     	;# 
  1464  0196                     	;# 
  1465  0197                     	;# 
  1466  0199                     	;# 
  1467  0199                     	;# 
  1468  0199                     	;# 
  1469  019A                     	;# 
  1470  019A                     	;# 
  1471  019A                     	;# 
  1472  019B                     	;# 
  1473  019B                     	;# 
  1474  019B                     	;# 
  1475  019B                     	;# 
  1476  019B                     	;# 
  1477  019C                     	;# 
  1478  019C                     	;# 
  1479  019C                     	;# 
  1480  019D                     	;# 
  1481  019D                     	;# 
  1482  019D                     	;# 
  1483  019E                     	;# 
  1484  019E                     	;# 
  1485  019E                     	;# 
  1486  019F                     	;# 
  1487  019F                     	;# 
  1488  019F                     	;# 
  1489  019F                     	;# 
  1490  019F                     	;# 
  1491  020C                     	;# 
  1492  020D                     	;# 
  1493  020E                     	;# 
  1494  0211                     	;# 
  1495  0211                     	;# 
  1496  0212                     	;# 
  1497  0212                     	;# 
  1498  0213                     	;# 
  1499  0213                     	;# 
  1500  0214                     	;# 
  1501  0214                     	;# 
  1502  0215                     	;# 
  1503  0215                     	;# 
  1504  0215                     	;# 
  1505  0215                     	;# 
  1506  0216                     	;# 
  1507  0216                     	;# 
  1508  0217                     	;# 
  1509  0217                     	;# 
  1510  028C                     	;# 
  1511  028D                     	;# 
  1512  028E                     	;# 
  1513  0291                     	;# 
  1514  0291                     	;# 
  1515  0292                     	;# 
  1516  0293                     	;# 
  1517  0294                     	;# 
  1518  0298                     	;# 
  1519  0298                     	;# 
  1520  0299                     	;# 
  1521  029A                     	;# 
  1522  029B                     	;# 
  1523  029E                     	;# 
  1524  030C                     	;# 
  1525  030D                     	;# 
  1526  030E                     	;# 
  1527  038C                     	;# 
  1528  038D                     	;# 
  1529  038E                     	;# 
  1530  0391                     	;# 
  1531  0392                     	;# 
  1532  0393                     	;# 
  1533  0394                     	;# 
  1534  0395                     	;# 
  1535  0396                     	;# 
  1536  0397                     	;# 
  1537  0398                     	;# 
  1538  0399                     	;# 
  1539  040E                     	;# 
  1540  0413                     	;# 
  1541  0413                     	;# 
  1542  0414                     	;# 
  1543  0414                     	;# 
  1544  0415                     	;# 
  1545  0416                     	;# 
  1546  0417                     	;# 
  1547  0418                     	;# 
  1548  041A                     	;# 
  1549  041A                     	;# 
  1550  041B                     	;# 
  1551  041B                     	;# 
  1552  041C                     	;# 
  1553  041D                     	;# 
  1554  041E                     	;# 
  1555  041F                     	;# 
  1556  0493                     	;# 
  1557  0494                     	;# 
  1558  0495                     	;# 
  1559  0496                     	;# 
  1560  049A                     	;# 
  1561  049B                     	;# 
  1562  049C                     	;# 
  1563  049D                     	;# 
  1564  058C                     	;# 
  1565  058C                     	;# 
  1566  058D                     	;# 
  1567  058E                     	;# 
  1568  058E                     	;# 
  1569  058F                     	;# 
  1570  0590                     	;# 
  1571  0590                     	;# 
  1572  0591                     	;# 
  1573  0592                     	;# 
  1574  0592                     	;# 
  1575  0593                     	;# 
  1576  0594                     	;# 
  1577  0594                     	;# 
  1578  0595                     	;# 
  1579  0596                     	;# 
  1580  0596                     	;# 
  1581  0597                     	;# 
  1582  0598                     	;# 
  1583  0599                     	;# 
  1584  059A                     	;# 
  1585  059B                     	;# 
  1586  059B                     	;# 
  1587  059C                     	;# 
  1588  059D                     	;# 
  1589  060C                     	;# 
  1590  060C                     	;# 
  1591  060D                     	;# 
  1592  060E                     	;# 
  1593  060F                     	;# 
  1594  060F                     	;# 
  1595  0610                     	;# 
  1596  0611                     	;# 
  1597  0612                     	;# 
  1598  0613                     	;# 
  1599  0614                     	;# 
  1600  0617                     	;# 
  1601  0617                     	;# 
  1602  0618                     	;# 
  1603  0619                     	;# 
  1604  061A                     	;# 
  1605  061A                     	;# 
  1606  061B                     	;# 
  1607  061C                     	;# 
  1608  0691                     	;# 
  1609  0692                     	;# 
  1610  0693                     	;# 
  1611  0694                     	;# 
  1612  0695                     	;# 
  1613  0696                     	;# 
  1614  0697                     	;# 
  1615  0699                     	;# 
  1616  069A                     	;# 
  1617  0711                     	;# 
  1618  0712                     	;# 
  1619  0713                     	;# 
  1620  0714                     	;# 
  1621  0715                     	;# 
  1622  0718                     	;# 
  1623  0718                     	;# 
  1624  0719                     	;# 
  1625  071A                     	;# 
  1626  071A                     	;# 
  1627  071B                     	;# 
  1628  071C                     	;# 
  1629  071D                     	;# 
  1630  0791                     	;# 
  1631  0791                     	;# 
  1632  0792                     	;# 
  1633  0793                     	;# 
  1634  0793                     	;# 
  1635  0794                     	;# 
  1636  0795                     	;# 
  1637  0795                     	;# 
  1638  0796                     	;# 
  1639  0797                     	;# 
  1640  0797                     	;# 
  1641  0798                     	;# 
  1642  0799                     	;# 
  1643  079A                     	;# 
  1644  080C                     	;# 
  1645  080C                     	;# 
  1646  080D                     	;# 
  1647  080E                     	;# 
  1648  080E                     	;# 
  1649  080F                     	;# 
  1650  0810                     	;# 
  1651  0810                     	;# 
  1652  0811                     	;# 
  1653  0812                     	;# 
  1654  0812                     	;# 
  1655  0813                     	;# 
  1656  0814                     	;# 
  1657  0815                     	;# 
  1658  0816                     	;# 
  1659  0817                     	;# 
  1660  0818                     	;# 
  1661  0819                     	;# 
  1662  081A                     	;# 
  1663  081A                     	;# 
  1664  081B                     	;# 
  1665  081C                     	;# 
  1666  081C                     	;# 
  1667  081D                     	;# 
  1668  088C                     	;# 
  1669  088D                     	;# 
  1670  088E                     	;# 
  1671  088F                     	;# 
  1672  088F                     	;# 
  1673  0890                     	;# 
  1674  0891                     	;# 
  1675  0892                     	;# 
  1676  0893                     	;# 
  1677  0893                     	;# 
  1678  0894                     	;# 
  1679  0895                     	;# 
  1680  0896                     	;# 
  1681  0897                     	;# 
  1682  0897                     	;# 
  1683  0898                     	;# 
  1684  0899                     	;# 
  1685  0D8C                     	;# 
  1686  0D8C                     	;# 
  1687  0D8D                     	;# 
  1688  0D8E                     	;# 
  1689  0D8F                     	;# 
  1690  0D8F                     	;# 
  1691  0D90                     	;# 
  1692  0D91                     	;# 
  1693  0D92                     	;# 
  1694  0D92                     	;# 
  1695  0D93                     	;# 
  1696  0D94                     	;# 
  1697  0D95                     	;# 
  1698  0D95                     	;# 
  1699  0D96                     	;# 
  1700  0D97                     	;# 
  1701  0D98                     	;# 
  1702  0D99                     	;# 
  1703  0D9A                     	;# 
  1704  0D9B                     	;# 
  1705  0D9C                     	;# 
  1706  0D9D                     	;# 
  1707  0D9E                     	;# 
  1708  0D9E                     	;# 
  1709  0D9F                     	;# 
  1710  0DA0                     	;# 
  1711  0DA1                     	;# 
  1712  0DA1                     	;# 
  1713  0DA2                     	;# 
  1714  0DA3                     	;# 
  1715  0DA4                     	;# 
  1716  0DA4                     	;# 
  1717  0DA5                     	;# 
  1718  0DA6                     	;# 
  1719  0DA7                     	;# 
  1720  0DA7                     	;# 
  1721  0DA8                     	;# 
  1722  0DA9                     	;# 
  1723  0DAA                     	;# 
  1724  0DAB                     	;# 
  1725  0DAC                     	;# 
  1726  0DAD                     	;# 
  1727  0DAE                     	;# 
  1728  0DAF                     	;# 
  1729  0E0F                     	;# 
  1730  0E10                     	;# 
  1731  0E11                     	;# 
  1732  0E12                     	;# 
  1733  0E13                     	;# 
  1734  0E14                     	;# 
  1735  0E15                     	;# 
  1736  0E16                     	;# 
  1737  0E17                     	;# 
  1738  0E18                     	;# 
  1739  0E19                     	;# 
  1740  0E1A                     	;# 
  1741  0E1B                     	;# 
  1742  0E1C                     	;# 
  1743  0E1D                     	;# 
  1744  0E1E                     	;# 
  1745  0E1F                     	;# 
  1746  0E20                     	;# 
  1747  0E21                     	;# 
  1748  0E22                     	;# 
  1749  0E23                     	;# 
  1750  0E24                     	;# 
  1751  0E25                     	;# 
  1752  0E26                     	;# 
  1753  0E27                     	;# 
  1754  0E28                     	;# 
  1755  0E29                     	;# 
  1756  0E2A                     	;# 
  1757  0E2B                     	;# 
  1758  0E2C                     	;# 
  1759  0E2D                     	;# 
  1760  0E2E                     	;# 
  1761  0E90                     	;# 
  1762  0E91                     	;# 
  1763  0E92                     	;# 
  1764  0E94                     	;# 
  1765  0E95                     	;# 
  1766  0E9C                     	;# 
  1767  0E9D                     	;# 
  1768  0E9E                     	;# 
  1769  0E9F                     	;# 
  1770  0EA0                     	;# 
  1771  0EA1                     	;# 
  1772  0EA2                     	;# 
  1773  0EA3                     	;# 
  1774  0EA4                     	;# 
  1775  0EA5                     	;# 
  1776  0EA6                     	;# 
  1777  0EA7                     	;# 
  1778  0F0F                     	;# 
  1779  0F10                     	;# 
  1780  0F11                     	;# 
  1781  0F12                     	;# 
  1782  0F13                     	;# 
  1783  0F14                     	;# 
  1784  0F15                     	;# 
  1785  0F16                     	;# 
  1786  0F17                     	;# 
  1787  0F18                     	;# 
  1788  0F19                     	;# 
  1789  0F1A                     	;# 
  1790  0F1B                     	;# 
  1791  0F1C                     	;# 
  1792  0F1D                     	;# 
  1793  0F1E                     	;# 
  1794  0F1F                     	;# 
  1795  0F20                     	;# 
  1796  0F21                     	;# 
  1797  0F22                     	;# 
  1798  0F23                     	;# 
  1799  0F24                     	;# 
  1800  0F25                     	;# 
  1801  0F26                     	;# 
  1802  0F27                     	;# 
  1803  0F28                     	;# 
  1804  0F29                     	;# 
  1805  0F2A                     	;# 
  1806  0F2B                     	;# 
  1807  0F2C                     	;# 
  1808  0F2D                     	;# 
  1809  0F2E                     	;# 
  1810  0F2F                     	;# 
  1811  0F30                     	;# 
  1812  0F31                     	;# 
  1813  0F32                     	;# 
  1814  0F33                     	;# 
  1815  0F34                     	;# 
  1816  0F35                     	;# 
  1817  0F36                     	;# 
  1818  0F37                     	;# 
  1819  0FE4                     	;# 
  1820  0FE5                     	;# 
  1821  0FE6                     	;# 
  1822  0FE7                     	;# 
  1823  0FE8                     	;# 
  1824  0FE9                     	;# 
  1825  0FEA                     	;# 
  1826  0FEB                     	;# 
  1827  0FED                     	;# 
  1828  0FEE                     	;# 
  1829  0FEF                     	;# 
  1830  0000                     	;# 
  1831  0001                     	;# 
  1832  0002                     	;# 
  1833  0003                     	;# 
  1834  0004                     	;# 
  1835  0005                     	;# 
  1836  0006                     	;# 
  1837  0007                     	;# 
  1838  0008                     	;# 
  1839  0009                     	;# 
  1840  000A                     	;# 
  1841  000B                     	;# 
  1842  000C                     	;# 
  1843  000D                     	;# 
  1844  000E                     	;# 
  1845  0010                     	;# 
  1846  0011                     	;# 
  1847  0012                     	;# 
  1848  0013                     	;# 
  1849  0014                     	;# 
  1850  0015                     	;# 
  1851  0016                     	;# 
  1852  0016                     	;# 
  1853  0017                     	;# 
  1854  0018                     	;# 
  1855  0019                     	;# 
  1856  001A                     	;# 
  1857  001A                     	;# 
  1858  001B                     	;# 
  1859  001B                     	;# 
  1860  001C                     	;# 
  1861  001D                     	;# 
  1862  001E                     	;# 
  1863  001F                     	;# 
  1864  008C                     	;# 
  1865  008D                     	;# 
  1866  008E                     	;# 
  1867  0090                     	;# 
  1868  0091                     	;# 
  1869  0092                     	;# 
  1870  0093                     	;# 
  1871  0094                     	;# 
  1872  0095                     	;# 
  1873  0096                     	;# 
  1874  0098                     	;# 
  1875  0099                     	;# 
  1876  009A                     	;# 
  1877  009B                     	;# 
  1878  009B                     	;# 
  1879  009C                     	;# 
  1880  009D                     	;# 
  1881  009E                     	;# 
  1882  009F                     	;# 
  1883  010C                     	;# 
  1884  010D                     	;# 
  1885  010E                     	;# 
  1886  0111                     	;# 
  1887  0112                     	;# 
  1888  0113                     	;# 
  1889  0114                     	;# 
  1890  0115                     	;# 
  1891  0116                     	;# 
  1892  0117                     	;# 
  1893  0118                     	;# 
  1894  0119                     	;# 
  1895  011C                     	;# 
  1896  018C                     	;# 
  1897  018D                     	;# 
  1898  018E                     	;# 
  1899  0191                     	;# 
  1900  0191                     	;# 
  1901  0192                     	;# 
  1902  0193                     	;# 
  1903  0193                     	;# 
  1904  0194                     	;# 
  1905  0195                     	;# 
  1906  0196                     	;# 
  1907  0197                     	;# 
  1908  0199                     	;# 
  1909  0199                     	;# 
  1910  0199                     	;# 
  1911  019A                     	;# 
  1912  019A                     	;# 
  1913  019A                     	;# 
  1914  019B                     	;# 
  1915  019B                     	;# 
  1916  019B                     	;# 
  1917  019B                     	;# 
  1918  019B                     	;# 
  1919  019C                     	;# 
  1920  019C                     	;# 
  1921  019C                     	;# 
  1922  019D                     	;# 
  1923  019D                     	;# 
  1924  019D                     	;# 
  1925  019E                     	;# 
  1926  019E                     	;# 
  1927  019E                     	;# 
  1928  019F                     	;# 
  1929  019F                     	;# 
  1930  019F                     	;# 
  1931  019F                     	;# 
  1932  019F                     	;# 
  1933  020C                     	;# 
  1934  020D                     	;# 
  1935  020E                     	;# 
  1936  0211                     	;# 
  1937  0211                     	;# 
  1938  0212                     	;# 
  1939  0212                     	;# 
  1940  0213                     	;# 
  1941  0213                     	;# 
  1942  0214                     	;# 
  1943  0214                     	;# 
  1944  0215                     	;# 
  1945  0215                     	;# 
  1946  0215                     	;# 
  1947  0215                     	;# 
  1948  0216                     	;# 
  1949  0216                     	;# 
  1950  0217                     	;# 
  1951  0217                     	;# 
  1952  028C                     	;# 
  1953  028D                     	;# 
  1954  028E                     	;# 
  1955  0291                     	;# 
  1956  0291                     	;# 
  1957  0292                     	;# 
  1958  0293                     	;# 
  1959  0294                     	;# 
  1960  0298                     	;# 
  1961  0298                     	;# 
  1962  0299                     	;# 
  1963  029A                     	;# 
  1964  029B                     	;# 
  1965  029E                     	;# 
  1966  030C                     	;# 
  1967  030D                     	;# 
  1968  030E                     	;# 
  1969  038C                     	;# 
  1970  038D                     	;# 
  1971  038E                     	;# 
  1972  0391                     	;# 
  1973  0392                     	;# 
  1974  0393                     	;# 
  1975  0394                     	;# 
  1976  0395                     	;# 
  1977  0396                     	;# 
  1978  0397                     	;# 
  1979  0398                     	;# 
  1980  0399                     	;# 
  1981  040E                     	;# 
  1982  0413                     	;# 
  1983  0413                     	;# 
  1984  0414                     	;# 
  1985  0414                     	;# 
  1986  0415                     	;# 
  1987  0416                     	;# 
  1988  0417                     	;# 
  1989  0418                     	;# 
  1990  041A                     	;# 
  1991  041A                     	;# 
  1992  041B                     	;# 
  1993  041B                     	;# 
  1994  041C                     	;# 
  1995  041D                     	;# 
  1996  041E                     	;# 
  1997  041F                     	;# 
  1998  0493                     	;# 
  1999  0494                     	;# 
  2000  0495                     	;# 
  2001  0496                     	;# 
  2002  049A                     	;# 
  2003  049B                     	;# 
  2004  049C                     	;# 
  2005  049D                     	;# 
  2006  058C                     	;# 
  2007  058C                     	;# 
  2008  058D                     	;# 
  2009  058E                     	;# 
  2010  058E                     	;# 
  2011  058F                     	;# 
  2012  0590                     	;# 
  2013  0590                     	;# 
  2014  0591                     	;# 
  2015  0592                     	;# 
  2016  0592                     	;# 
  2017  0593                     	;# 
  2018  0594                     	;# 
  2019  0594                     	;# 
  2020  0595                     	;# 
  2021  0596                     	;# 
  2022  0596                     	;# 
  2023  0597                     	;# 
  2024  0598                     	;# 
  2025  0599                     	;# 
  2026  059A                     	;# 
  2027  059B                     	;# 
  2028  059B                     	;# 
  2029  059C                     	;# 
  2030  059D                     	;# 
  2031  060C                     	;# 
  2032  060C                     	;# 
  2033  060D                     	;# 
  2034  060E                     	;# 
  2035  060F                     	;# 
  2036  060F                     	;# 
  2037  0610                     	;# 
  2038  0611                     	;# 
  2039  0612                     	;# 
  2040  0613                     	;# 
  2041  0614                     	;# 
  2042  0617                     	;# 
  2043  0617                     	;# 
  2044  0618                     	;# 
  2045  0619                     	;# 
  2046  061A                     	;# 
  2047  061A                     	;# 
  2048  061B                     	;# 
  2049  061C                     	;# 
  2050  0691                     	;# 
  2051  0692                     	;# 
  2052  0693                     	;# 
  2053  0694                     	;# 
  2054  0695                     	;# 
  2055  0696                     	;# 
  2056  0697                     	;# 
  2057  0699                     	;# 
  2058  069A                     	;# 
  2059  0711                     	;# 
  2060  0712                     	;# 
  2061  0713                     	;# 
  2062  0714                     	;# 
  2063  0715                     	;# 
  2064  0718                     	;# 
  2065  0718                     	;# 
  2066  0719                     	;# 
  2067  071A                     	;# 
  2068  071A                     	;# 
  2069  071B                     	;# 
  2070  071C                     	;# 
  2071  071D                     	;# 
  2072  0791                     	;# 
  2073  0791                     	;# 
  2074  0792                     	;# 
  2075  0793                     	;# 
  2076  0793                     	;# 
  2077  0794                     	;# 
  2078  0795                     	;# 
  2079  0795                     	;# 
  2080  0796                     	;# 
  2081  0797                     	;# 
  2082  0797                     	;# 
  2083  0798                     	;# 
  2084  0799                     	;# 
  2085  079A                     	;# 
  2086  080C                     	;# 
  2087  080C                     	;# 
  2088  080D                     	;# 
  2089  080E                     	;# 
  2090  080E                     	;# 
  2091  080F                     	;# 
  2092  0810                     	;# 
  2093  0810                     	;# 
  2094  0811                     	;# 
  2095  0812                     	;# 
  2096  0812                     	;# 
  2097  0813                     	;# 
  2098  0814                     	;# 
  2099  0815                     	;# 
  2100  0816                     	;# 
  2101  0817                     	;# 
  2102  0818                     	;# 
  2103  0819                     	;# 
  2104  081A                     	;# 
  2105  081A                     	;# 
  2106  081B                     	;# 
  2107  081C                     	;# 
  2108  081C                     	;# 
  2109  081D                     	;# 
  2110  088C                     	;# 
  2111  088D                     	;# 
  2112  088E                     	;# 
  2113  088F                     	;# 
  2114  088F                     	;# 
  2115  0890                     	;# 
  2116  0891                     	;# 
  2117  0892                     	;# 
  2118  0893                     	;# 
  2119  0893                     	;# 
  2120  0894                     	;# 
  2121  0895                     	;# 
  2122  0896                     	;# 
  2123  0897                     	;# 
  2124  0897                     	;# 
  2125  0898                     	;# 
  2126  0899                     	;# 
  2127  0D8C                     	;# 
  2128  0D8C                     	;# 
  2129  0D8D                     	;# 
  2130  0D8E                     	;# 
  2131  0D8F                     	;# 
  2132  0D8F                     	;# 
  2133  0D90                     	;# 
  2134  0D91                     	;# 
  2135  0D92                     	;# 
  2136  0D92                     	;# 
  2137  0D93                     	;# 
  2138  0D94                     	;# 
  2139  0D95                     	;# 
  2140  0D95                     	;# 
  2141  0D96                     	;# 
  2142  0D97                     	;# 
  2143  0D98                     	;# 
  2144  0D99                     	;# 
  2145  0D9A                     	;# 
  2146  0D9B                     	;# 
  2147  0D9C                     	;# 
  2148  0D9D                     	;# 
  2149  0D9E                     	;# 
  2150  0D9E                     	;# 
  2151  0D9F                     	;# 
  2152  0DA0                     	;# 
  2153  0DA1                     	;# 
  2154  0DA1                     	;# 
  2155  0DA2                     	;# 
  2156  0DA3                     	;# 
  2157  0DA4                     	;# 
  2158  0DA4                     	;# 
  2159  0DA5                     	;# 
  2160  0DA6                     	;# 
  2161  0DA7                     	;# 
  2162  0DA7                     	;# 
  2163  0DA8                     	;# 
  2164  0DA9                     	;# 
  2165  0DAA                     	;# 
  2166  0DAB                     	;# 
  2167  0DAC                     	;# 
  2168  0DAD                     	;# 
  2169  0DAE                     	;# 
  2170  0DAF                     	;# 
  2171  0E0F                     	;# 
  2172  0E10                     	;# 
  2173  0E11                     	;# 
  2174  0E12                     	;# 
  2175  0E13                     	;# 
  2176  0E14                     	;# 
  2177  0E15                     	;# 
  2178  0E16                     	;# 
  2179  0E17                     	;# 
  2180  0E18                     	;# 
  2181  0E19                     	;# 
  2182  0E1A                     	;# 
  2183  0E1B                     	;# 
  2184  0E1C                     	;# 
  2185  0E1D                     	;# 
  2186  0E1E                     	;# 
  2187  0E1F                     	;# 
  2188  0E20                     	;# 
  2189  0E21                     	;# 
  2190  0E22                     	;# 
  2191  0E23                     	;# 
  2192  0E24                     	;# 
  2193  0E25                     	;# 
  2194  0E26                     	;# 
  2195  0E27                     	;# 
  2196  0E28                     	;# 
  2197  0E29                     	;# 
  2198  0E2A                     	;# 
  2199  0E2B                     	;# 
  2200  0E2C                     	;# 
  2201  0E2D                     	;# 
  2202  0E2E                     	;# 
  2203  0E90                     	;# 
  2204  0E91                     	;# 
  2205  0E92                     	;# 
  2206  0E94                     	;# 
  2207  0E95                     	;# 
  2208  0E9C                     	;# 
  2209  0E9D                     	;# 
  2210  0E9E                     	;# 
  2211  0E9F                     	;# 
  2212  0EA0                     	;# 
  2213  0EA1                     	;# 
  2214  0EA2                     	;# 
  2215  0EA3                     	;# 
  2216  0EA4                     	;# 
  2217  0EA5                     	;# 
  2218  0EA6                     	;# 
  2219  0EA7                     	;# 
  2220  0F0F                     	;# 
  2221  0F10                     	;# 
  2222  0F11                     	;# 
  2223  0F12                     	;# 
  2224  0F13                     	;# 
  2225  0F14                     	;# 
  2226  0F15                     	;# 
  2227  0F16                     	;# 
  2228  0F17                     	;# 
  2229  0F18                     	;# 
  2230  0F19                     	;# 
  2231  0F1A                     	;# 
  2232  0F1B                     	;# 
  2233  0F1C                     	;# 
  2234  0F1D                     	;# 
  2235  0F1E                     	;# 
  2236  0F1F                     	;# 
  2237  0F20                     	;# 
  2238  0F21                     	;# 
  2239  0F22                     	;# 
  2240  0F23                     	;# 
  2241  0F24                     	;# 
  2242  0F25                     	;# 
  2243  0F26                     	;# 
  2244  0F27                     	;# 
  2245  0F28                     	;# 
  2246  0F29                     	;# 
  2247  0F2A                     	;# 
  2248  0F2B                     	;# 
  2249  0F2C                     	;# 
  2250  0F2D                     	;# 
  2251  0F2E                     	;# 
  2252  0F2F                     	;# 
  2253  0F30                     	;# 
  2254  0F31                     	;# 
  2255  0F32                     	;# 
  2256  0F33                     	;# 
  2257  0F34                     	;# 
  2258  0F35                     	;# 
  2259  0F36                     	;# 
  2260  0F37                     	;# 
  2261  0FE4                     	;# 
  2262  0FE5                     	;# 
  2263  0FE6                     	;# 
  2264  0FE7                     	;# 
  2265  0FE8                     	;# 
  2266  0FE9                     	;# 
  2267  0FEA                     	;# 
  2268  0FEB                     	;# 
  2269  0FED                     	;# 
  2270  0FEE                     	;# 
  2271  0FEF                     	;# 
  2272  0000                     	;# 
  2273  0001                     	;# 
  2274  0002                     	;# 
  2275  0003                     	;# 
  2276  0004                     	;# 
  2277  0005                     	;# 
  2278  0006                     	;# 
  2279  0007                     	;# 
  2280  0008                     	;# 
  2281  0009                     	;# 
  2282  000A                     	;# 
  2283  000B                     	;# 
  2284  000C                     	;# 
  2285  000D                     	;# 
  2286  000E                     	;# 
  2287  0010                     	;# 
  2288  0011                     	;# 
  2289  0012                     	;# 
  2290  0013                     	;# 
  2291  0014                     	;# 
  2292  0015                     	;# 
  2293  0016                     	;# 
  2294  0016                     	;# 
  2295  0017                     	;# 
  2296  0018                     	;# 
  2297  0019                     	;# 
  2298  001A                     	;# 
  2299  001A                     	;# 
  2300  001B                     	;# 
  2301  001B                     	;# 
  2302  001C                     	;# 
  2303  001D                     	;# 
  2304  001E                     	;# 
  2305  001F                     	;# 
  2306  008C                     	;# 
  2307  008D                     	;# 
  2308  008E                     	;# 
  2309  0090                     	;# 
  2310  0091                     	;# 
  2311  0092                     	;# 
  2312  0093                     	;# 
  2313  0094                     	;# 
  2314  0095                     	;# 
  2315  0096                     	;# 
  2316  0098                     	;# 
  2317  0099                     	;# 
  2318  009A                     	;# 
  2319  009B                     	;# 
  2320  009B                     	;# 
  2321  009C                     	;# 
  2322  009D                     	;# 
  2323  009E                     	;# 
  2324  009F                     	;# 
  2325  010C                     	;# 
  2326  010D                     	;# 
  2327  010E                     	;# 
  2328  0111                     	;# 
  2329  0112                     	;# 
  2330  0113                     	;# 
  2331  0114                     	;# 
  2332  0115                     	;# 
  2333  0116                     	;# 
  2334  0117                     	;# 
  2335  0118                     	;# 
  2336  0119                     	;# 
  2337  011C                     	;# 
  2338  018C                     	;# 
  2339  018D                     	;# 
  2340  018E                     	;# 
  2341  0191                     	;# 
  2342  0191                     	;# 
  2343  0192                     	;# 
  2344  0193                     	;# 
  2345  0193                     	;# 
  2346  0194                     	;# 
  2347  0195                     	;# 
  2348  0196                     	;# 
  2349  0197                     	;# 
  2350  0199                     	;# 
  2351  0199                     	;# 
  2352  0199                     	;# 
  2353  019A                     	;# 
  2354  019A                     	;# 
  2355  019A                     	;# 
  2356  019B                     	;# 
  2357  019B                     	;# 
  2358  019B                     	;# 
  2359  019B                     	;# 
  2360  019B                     	;# 
  2361  019C                     	;# 
  2362  019C                     	;# 
  2363  019C                     	;# 
  2364  019D                     	;# 
  2365  019D                     	;# 
  2366  019D                     	;# 
  2367  019E                     	;# 
  2368  019E                     	;# 
  2369  019E                     	;# 
  2370  019F                     	;# 
  2371  019F                     	;# 
  2372  019F                     	;# 
  2373  019F                     	;# 
  2374  019F                     	;# 
  2375  020C                     	;# 
  2376  020D                     	;# 
  2377  020E                     	;# 
  2378  0211                     	;# 
  2379  0211                     	;# 
  2380  0212                     	;# 
  2381  0212                     	;# 
  2382  0213                     	;# 
  2383  0213                     	;# 
  2384  0214                     	;# 
  2385  0214                     	;# 
  2386  0215                     	;# 
  2387  0215                     	;# 
  2388  0215                     	;# 
  2389  0215                     	;# 
  2390  0216                     	;# 
  2391  0216                     	;# 
  2392  0217                     	;# 
  2393  0217                     	;# 
  2394  028C                     	;# 
  2395  028D                     	;# 
  2396  028E                     	;# 
  2397  0291                     	;# 
  2398  0291                     	;# 
  2399  0292                     	;# 
  2400  0293                     	;# 
  2401  0294                     	;# 
  2402  0298                     	;# 
  2403  0298                     	;# 
  2404  0299                     	;# 
  2405  029A                     	;# 
  2406  029B                     	;# 
  2407  029E                     	;# 
  2408  030C                     	;# 
  2409  030D                     	;# 
  2410  030E                     	;# 
  2411  038C                     	;# 
  2412  038D                     	;# 
  2413  038E                     	;# 
  2414  0391                     	;# 
  2415  0392                     	;# 
  2416  0393                     	;# 
  2417  0394                     	;# 
  2418  0395                     	;# 
  2419  0396                     	;# 
  2420  0397                     	;# 
  2421  0398                     	;# 
  2422  0399                     	;# 
  2423  040E                     	;# 
  2424  0413                     	;# 
  2425  0413                     	;# 
  2426  0414                     	;# 
  2427  0414                     	;# 
  2428  0415                     	;# 
  2429  0416                     	;# 
  2430  0417                     	;# 
  2431  0418                     	;# 
  2432  041A                     	;# 
  2433  041A                     	;# 
  2434  041B                     	;# 
  2435  041B                     	;# 
  2436  041C                     	;# 
  2437  041D                     	;# 
  2438  041E                     	;# 
  2439  041F                     	;# 
  2440  0493                     	;# 
  2441  0494                     	;# 
  2442  0495                     	;# 
  2443  0496                     	;# 
  2444  049A                     	;# 
  2445  049B                     	;# 
  2446  049C                     	;# 
  2447  049D                     	;# 
  2448  058C                     	;# 
  2449  058C                     	;# 
  2450  058D                     	;# 
  2451  058E                     	;# 
  2452  058E                     	;# 
  2453  058F                     	;# 
  2454  0590                     	;# 
  2455  0590                     	;# 
  2456  0591                     	;# 
  2457  0592                     	;# 
  2458  0592                     	;# 
  2459  0593                     	;# 
  2460  0594                     	;# 
  2461  0594                     	;# 
  2462  0595                     	;# 
  2463  0596                     	;# 
  2464  0596                     	;# 
  2465  0597                     	;# 
  2466  0598                     	;# 
  2467  0599                     	;# 
  2468  059A                     	;# 
  2469  059B                     	;# 
  2470  059B                     	;# 
  2471  059C                     	;# 
  2472  059D                     	;# 
  2473  060C                     	;# 
  2474  060C                     	;# 
  2475  060D                     	;# 
  2476  060E                     	;# 
  2477  060F                     	;# 
  2478  060F                     	;# 
  2479  0610                     	;# 
  2480  0611                     	;# 
  2481  0612                     	;# 
  2482  0613                     	;# 
  2483  0614                     	;# 
  2484  0617                     	;# 
  2485  0617                     	;# 
  2486  0618                     	;# 
  2487  0619                     	;# 
  2488  061A                     	;# 
  2489  061A                     	;# 
  2490  061B                     	;# 
  2491  061C                     	;# 
  2492  0691                     	;# 
  2493  0692                     	;# 
  2494  0693                     	;# 
  2495  0694                     	;# 
  2496  0695                     	;# 
  2497  0696                     	;# 
  2498  0697                     	;# 
  2499  0699                     	;# 
  2500  069A                     	;# 
  2501  0711                     	;# 
  2502  0712                     	;# 
  2503  0713                     	;# 
  2504  0714                     	;# 
  2505  0715                     	;# 
  2506  0718                     	;# 
  2507  0718                     	;# 
  2508  0719                     	;# 
  2509  071A                     	;# 
  2510  071A                     	;# 
  2511  071B                     	;# 
  2512  071C                     	;# 
  2513  071D                     	;# 
  2514  0791                     	;# 
  2515  0791                     	;# 
  2516  0792                     	;# 
  2517  0793                     	;# 
  2518  0793                     	;# 
  2519  0794                     	;# 
  2520  0795                     	;# 
  2521  0795                     	;# 
  2522  0796                     	;# 
  2523  0797                     	;# 
  2524  0797                     	;# 
  2525  0798                     	;# 
  2526  0799                     	;# 
  2527  079A                     	;# 
  2528  080C                     	;# 
  2529  080C                     	;# 
  2530  080D                     	;# 
  2531  080E                     	;# 
  2532  080E                     	;# 
  2533  080F                     	;# 
  2534  0810                     	;# 
  2535  0810                     	;# 
  2536  0811                     	;# 
  2537  0812                     	;# 
  2538  0812                     	;# 
  2539  0813                     	;# 
  2540  0814                     	;# 
  2541  0815                     	;# 
  2542  0816                     	;# 
  2543  0817                     	;# 
  2544  0818                     	;# 
  2545  0819                     	;# 
  2546  081A                     	;# 
  2547  081A                     	;# 
  2548  081B                     	;# 
  2549  081C                     	;# 
  2550  081C                     	;# 
  2551  081D                     	;# 
  2552  088C                     	;# 
  2553  088D                     	;# 
  2554  088E                     	;# 
  2555  088F                     	;# 
  2556  088F                     	;# 
  2557  0890                     	;# 
  2558  0891                     	;# 
  2559  0892                     	;# 
  2560  0893                     	;# 
  2561  0893                     	;# 
  2562  0894                     	;# 
  2563  0895                     	;# 
  2564  0896                     	;# 
  2565  0897                     	;# 
  2566  0897                     	;# 
  2567  0898                     	;# 
  2568  0899                     	;# 
  2569  0D8C                     	;# 
  2570  0D8C                     	;# 
  2571  0D8D                     	;# 
  2572  0D8E                     	;# 
  2573  0D8F                     	;# 
  2574  0D8F                     	;# 
  2575  0D90                     	;# 
  2576  0D91                     	;# 
  2577  0D92                     	;# 
  2578  0D92                     	;# 
  2579  0D93                     	;# 
  2580  0D94                     	;# 
  2581  0D95                     	;# 
  2582  0D95                     	;# 
  2583  0D96                     	;# 
  2584  0D97                     	;# 
  2585  0D98                     	;# 
  2586  0D99                     	;# 
  2587  0D9A                     	;# 
  2588  0D9B                     	;# 
  2589  0D9C                     	;# 
  2590  0D9D                     	;# 
  2591  0D9E                     	;# 
  2592  0D9E                     	;# 
  2593  0D9F                     	;# 
  2594  0DA0                     	;# 
  2595  0DA1                     	;# 
  2596  0DA1                     	;# 
  2597  0DA2                     	;# 
  2598  0DA3                     	;# 
  2599  0DA4                     	;# 
  2600  0DA4                     	;# 
  2601  0DA5                     	;# 
  2602  0DA6                     	;# 
  2603  0DA7                     	;# 
  2604  0DA7                     	;# 
  2605  0DA8                     	;# 
  2606  0DA9                     	;# 
  2607  0DAA                     	;# 
  2608  0DAB                     	;# 
  2609  0DAC                     	;# 
  2610  0DAD                     	;# 
  2611  0DAE                     	;# 
  2612  0DAF                     	;# 
  2613  0E0F                     	;# 
  2614  0E10                     	;# 
  2615  0E11                     	;# 
  2616  0E12                     	;# 
  2617  0E13                     	;# 
  2618  0E14                     	;# 
  2619  0E15                     	;# 
  2620  0E16                     	;# 
  2621  0E17                     	;# 
  2622  0E18                     	;# 
  2623  0E19                     	;# 
  2624  0E1A                     	;# 
  2625  0E1B                     	;# 
  2626  0E1C                     	;# 
  2627  0E1D                     	;# 
  2628  0E1E                     	;# 
  2629  0E1F                     	;# 
  2630  0E20                     	;# 
  2631  0E21                     	;# 
  2632  0E22                     	;# 
  2633  0E23                     	;# 
  2634  0E24                     	;# 
  2635  0E25                     	;# 
  2636  0E26                     	;# 
  2637  0E27                     	;# 
  2638  0E28                     	;# 
  2639  0E29                     	;# 
  2640  0E2A                     	;# 
  2641  0E2B                     	;# 
  2642  0E2C                     	;# 
  2643  0E2D                     	;# 
  2644  0E2E                     	;# 
  2645  0E90                     	;# 
  2646  0E91                     	;# 
  2647  0E92                     	;# 
  2648  0E94                     	;# 
  2649  0E95                     	;# 
  2650  0E9C                     	;# 
  2651  0E9D                     	;# 
  2652  0E9E                     	;# 
  2653  0E9F                     	;# 
  2654  0EA0                     	;# 
  2655  0EA1                     	;# 
  2656  0EA2                     	;# 
  2657  0EA3                     	;# 
  2658  0EA4                     	;# 
  2659  0EA5                     	;# 
  2660  0EA6                     	;# 
  2661  0EA7                     	;# 
  2662  0F0F                     	;# 
  2663  0F10                     	;# 
  2664  0F11                     	;# 
  2665  0F12                     	;# 
  2666  0F13                     	;# 
  2667  0F14                     	;# 
  2668  0F15                     	;# 
  2669  0F16                     	;# 
  2670  0F17                     	;# 
  2671  0F18                     	;# 
  2672  0F19                     	;# 
  2673  0F1A                     	;# 
  2674  0F1B                     	;# 
  2675  0F1C                     	;# 
  2676  0F1D                     	;# 
  2677  0F1E                     	;# 
  2678  0F1F                     	;# 
  2679  0F20                     	;# 
  2680  0F21                     	;# 
  2681  0F22                     	;# 
  2682  0F23                     	;# 
  2683  0F24                     	;# 
  2684  0F25                     	;# 
  2685  0F26                     	;# 
  2686  0F27                     	;# 
  2687  0F28                     	;# 
  2688  0F29                     	;# 
  2689  0F2A                     	;# 
  2690  0F2B                     	;# 
  2691  0F2C                     	;# 
  2692  0F2D                     	;# 
  2693  0F2E                     	;# 
  2694  0F2F                     	;# 
  2695  0F30                     	;# 
  2696  0F31                     	;# 
  2697  0F32                     	;# 
  2698  0F33                     	;# 
  2699  0F34                     	;# 
  2700  0F35                     	;# 
  2701  0F36                     	;# 
  2702  0F37                     	;# 
  2703  0FE4                     	;# 
  2704  0FE5                     	;# 
  2705  0FE6                     	;# 
  2706  0FE7                     	;# 
  2707  0FE8                     	;# 
  2708  0FE9                     	;# 
  2709  0FEA                     	;# 
  2710  0FEB                     	;# 
  2711  0FED                     	;# 
  2712  0FEE                     	;# 
  2713  0FEF                     	;# 
  2714  0000                     	;# 
  2715  0001                     	;# 
  2716  0002                     	;# 
  2717  0003                     	;# 
  2718  0004                     	;# 
  2719  0005                     	;# 
  2720  0006                     	;# 
  2721  0007                     	;# 
  2722  0008                     	;# 
  2723  0009                     	;# 
  2724  000A                     	;# 
  2725  000B                     	;# 
  2726  000C                     	;# 
  2727  000D                     	;# 
  2728  000E                     	;# 
  2729  0010                     	;# 
  2730  0011                     	;# 
  2731  0012                     	;# 
  2732  0013                     	;# 
  2733  0014                     	;# 
  2734  0015                     	;# 
  2735  0016                     	;# 
  2736  0016                     	;# 
  2737  0017                     	;# 
  2738  0018                     	;# 
  2739  0019                     	;# 
  2740  001A                     	;# 
  2741  001A                     	;# 
  2742  001B                     	;# 
  2743  001B                     	;# 
  2744  001C                     	;# 
  2745  001D                     	;# 
  2746  001E                     	;# 
  2747  001F                     	;# 
  2748  008C                     	;# 
  2749  008D                     	;# 
  2750  008E                     	;# 
  2751  0090                     	;# 
  2752  0091                     	;# 
  2753  0092                     	;# 
  2754  0093                     	;# 
  2755  0094                     	;# 
  2756  0095                     	;# 
  2757  0096                     	;# 
  2758  0098                     	;# 
  2759  0099                     	;# 
  2760  009A                     	;# 
  2761  009B                     	;# 
  2762  009B                     	;# 
  2763  009C                     	;# 
  2764  009D                     	;# 
  2765  009E                     	;# 
  2766  009F                     	;# 
  2767  010C                     	;# 
  2768  010D                     	;# 
  2769  010E                     	;# 
  2770  0111                     	;# 
  2771  0112                     	;# 
  2772  0113                     	;# 
  2773  0114                     	;# 
  2774  0115                     	;# 
  2775  0116                     	;# 
  2776  0117                     	;# 
  2777  0118                     	;# 
  2778  0119                     	;# 
  2779  011C                     	;# 
  2780  018C                     	;# 
  2781  018D                     	;# 
  2782  018E                     	;# 
  2783  0191                     	;# 
  2784  0191                     	;# 
  2785  0192                     	;# 
  2786  0193                     	;# 
  2787  0193                     	;# 
  2788  0194                     	;# 
  2789  0195                     	;# 
  2790  0196                     	;# 
  2791  0197                     	;# 
  2792  0199                     	;# 
  2793  0199                     	;# 
  2794  0199                     	;# 
  2795  019A                     	;# 
  2796  019A                     	;# 
  2797  019A                     	;# 
  2798  019B                     	;# 
  2799  019B                     	;# 
  2800  019B                     	;# 
  2801  019B                     	;# 
  2802  019B                     	;# 
  2803  019C                     	;# 
  2804  019C                     	;# 
  2805  019C                     	;# 
  2806  019D                     	;# 
  2807  019D                     	;# 
  2808  019D                     	;# 
  2809  019E                     	;# 
  2810  019E                     	;# 
  2811  019E                     	;# 
  2812  019F                     	;# 
  2813  019F                     	;# 
  2814  019F                     	;# 
  2815  019F                     	;# 
  2816  019F                     	;# 
  2817  020C                     	;# 
  2818  020D                     	;# 
  2819  020E                     	;# 
  2820  0211                     	;# 
  2821  0211                     	;# 
  2822  0212                     	;# 
  2823  0212                     	;# 
  2824  0213                     	;# 
  2825  0213                     	;# 
  2826  0214                     	;# 
  2827  0214                     	;# 
  2828  0215                     	;# 
  2829  0215                     	;# 
  2830  0215                     	;# 
  2831  0215                     	;# 
  2832  0216                     	;# 
  2833  0216                     	;# 
  2834  0217                     	;# 
  2835  0217                     	;# 
  2836  028C                     	;# 
  2837  028D                     	;# 
  2838  028E                     	;# 
  2839  0291                     	;# 
  2840  0291                     	;# 
  2841  0292                     	;# 
  2842  0293                     	;# 
  2843  0294                     	;# 
  2844  0298                     	;# 
  2845  0298                     	;# 
  2846  0299                     	;# 
  2847  029A                     	;# 
  2848  029B                     	;# 
  2849  029E                     	;# 
  2850  030C                     	;# 
  2851  030D                     	;# 
  2852  030E                     	;# 
  2853  038C                     	;# 
  2854  038D                     	;# 
  2855  038E                     	;# 
  2856  0391                     	;# 
  2857  0392                     	;# 
  2858  0393                     	;# 
  2859  0394                     	;# 
  2860  0395                     	;# 
  2861  0396                     	;# 
  2862  0397                     	;# 
  2863  0398                     	;# 
  2864  0399                     	;# 
  2865  040E                     	;# 
  2866  0413                     	;# 
  2867  0413                     	;# 
  2868  0414                     	;# 
  2869  0414                     	;# 
  2870  0415                     	;# 
  2871  0416                     	;# 
  2872  0417                     	;# 
  2873  0418                     	;# 
  2874  041A                     	;# 
  2875  041A                     	;# 
  2876  041B                     	;# 
  2877  041B                     	;# 
  2878  041C                     	;# 
  2879  041D                     	;# 
  2880  041E                     	;# 
  2881  041F                     	;# 
  2882  0493                     	;# 
  2883  0494                     	;# 
  2884  0495                     	;# 
  2885  0496                     	;# 
  2886  049A                     	;# 
  2887  049B                     	;# 
  2888  049C                     	;# 
  2889  049D                     	;# 
  2890  058C                     	;# 
  2891  058C                     	;# 
  2892  058D                     	;# 
  2893  058E                     	;# 
  2894  058E                     	;# 
  2895  058F                     	;# 
  2896  0590                     	;# 
  2897  0590                     	;# 
  2898  0591                     	;# 
  2899  0592                     	;# 
  2900  0592                     	;# 
  2901  0593                     	;# 
  2902  0594                     	;# 
  2903  0594                     	;# 
  2904  0595                     	;# 
  2905  0596                     	;# 
  2906  0596                     	;# 
  2907  0597                     	;# 
  2908  0598                     	;# 
  2909  0599                     	;# 
  2910  059A                     	;# 
  2911  059B                     	;# 
  2912  059B                     	;# 
  2913  059C                     	;# 
  2914  059D                     	;# 
  2915  060C                     	;# 
  2916  060C                     	;# 
  2917  060D                     	;# 
  2918  060E                     	;# 
  2919  060F                     	;# 
  2920  060F                     	;# 
  2921  0610                     	;# 
  2922  0611                     	;# 
  2923  0612                     	;# 
  2924  0613                     	;# 
  2925  0614                     	;# 
  2926  0617                     	;# 
  2927  0617                     	;# 
  2928  0618                     	;# 
  2929  0619                     	;# 
  2930  061A                     	;# 
  2931  061A                     	;# 
  2932  061B                     	;# 
  2933  061C                     	;# 
  2934  0691                     	;# 
  2935  0692                     	;# 
  2936  0693                     	;# 
  2937  0694                     	;# 
  2938  0695                     	;# 
  2939  0696                     	;# 
  2940  0697                     	;# 
  2941  0699                     	;# 
  2942  069A                     	;# 
  2943  0711                     	;# 
  2944  0712                     	;# 
  2945  0713                     	;# 
  2946  0714                     	;# 
  2947  0715                     	;# 
  2948  0718                     	;# 
  2949  0718                     	;# 
  2950  0719                     	;# 
  2951  071A                     	;# 
  2952  071A                     	;# 
  2953  071B                     	;# 
  2954  071C                     	;# 
  2955  071D                     	;# 
  2956  0791                     	;# 
  2957  0791                     	;# 
  2958  0792                     	;# 
  2959  0793                     	;# 
  2960  0793                     	;# 
  2961  0794                     	;# 
  2962  0795                     	;# 
  2963  0795                     	;# 
  2964  0796                     	;# 
  2965  0797                     	;# 
  2966  0797                     	;# 
  2967  0798                     	;# 
  2968  0799                     	;# 
  2969  079A                     	;# 
  2970  080C                     	;# 
  2971  080C                     	;# 
  2972  080D                     	;# 
  2973  080E                     	;# 
  2974  080E                     	;# 
  2975  080F                     	;# 
  2976  0810                     	;# 
  2977  0810                     	;# 
  2978  0811                     	;# 
  2979  0812                     	;# 
  2980  0812                     	;# 
  2981  0813                     	;# 
  2982  0814                     	;# 
  2983  0815                     	;# 
  2984  0816                     	;# 
  2985  0817                     	;# 
  2986  0818                     	;# 
  2987  0819                     	;# 
  2988  081A                     	;# 
  2989  081A                     	;# 
  2990  081B                     	;# 
  2991  081C                     	;# 
  2992  081C                     	;# 
  2993  081D                     	;# 
  2994  088C                     	;# 
  2995  088D                     	;# 
  2996  088E                     	;# 
  2997  088F                     	;# 
  2998  088F                     	;# 
  2999  0890                     	;# 
  3000  0891                     	;# 
  3001  0892                     	;# 
  3002  0893                     	;# 
  3003  0893                     	;# 
  3004  0894                     	;# 
  3005  0895                     	;# 
  3006  0896                     	;# 
  3007  0897                     	;# 
  3008  0897                     	;# 
  3009  0898                     	;# 
  3010  0899                     	;# 
  3011  0D8C                     	;# 
  3012  0D8C                     	;# 
  3013  0D8D                     	;# 
  3014  0D8E                     	;# 
  3015  0D8F                     	;# 
  3016  0D8F                     	;# 
  3017  0D90                     	;# 
  3018  0D91                     	;# 
  3019  0D92                     	;# 
  3020  0D92                     	;# 
  3021  0D93                     	;# 
  3022  0D94                     	;# 
  3023  0D95                     	;# 
  3024  0D95                     	;# 
  3025  0D96                     	;# 
  3026  0D97                     	;# 
  3027  0D98                     	;# 
  3028  0D99                     	;# 
  3029  0D9A                     	;# 
  3030  0D9B                     	;# 
  3031  0D9C                     	;# 
  3032  0D9D                     	;# 
  3033  0D9E                     	;# 
  3034  0D9E                     	;# 
  3035  0D9F                     	;# 
  3036  0DA0                     	;# 
  3037  0DA1                     	;# 
  3038  0DA1                     	;# 
  3039  0DA2                     	;# 
  3040  0DA3                     	;# 
  3041  0DA4                     	;# 
  3042  0DA4                     	;# 
  3043  0DA5                     	;# 
  3044  0DA6                     	;# 
  3045  0DA7                     	;# 
  3046  0DA7                     	;# 
  3047  0DA8                     	;# 
  3048  0DA9                     	;# 
  3049  0DAA                     	;# 
  3050  0DAB                     	;# 
  3051  0DAC                     	;# 
  3052  0DAD                     	;# 
  3053  0DAE                     	;# 
  3054  0DAF                     	;# 
  3055  0E0F                     	;# 
  3056  0E10                     	;# 
  3057  0E11                     	;# 
  3058  0E12                     	;# 
  3059  0E13                     	;# 
  3060  0E14                     	;# 
  3061  0E15                     	;# 
  3062  0E16                     	;# 
  3063  0E17                     	;# 
  3064  0E18                     	;# 
  3065  0E19                     	;# 
  3066  0E1A                     	;# 
  3067  0E1B                     	;# 
  3068  0E1C                     	;# 
  3069  0E1D                     	;# 
  3070  0E1E                     	;# 
  3071  0E1F                     	;# 
  3072  0E20                     	;# 
  3073  0E21                     	;# 
  3074  0E22                     	;# 
  3075  0E23                     	;# 
  3076  0E24                     	;# 
  3077  0E25                     	;# 
  3078  0E26                     	;# 
  3079  0E27                     	;# 
  3080  0E28                     	;# 
  3081  0E29                     	;# 
  3082  0E2A                     	;# 
  3083  0E2B                     	;# 
  3084  0E2C                     	;# 
  3085  0E2D                     	;# 
  3086  0E2E                     	;# 
  3087  0E90                     	;# 
  3088  0E91                     	;# 
  3089  0E92                     	;# 
  3090  0E94                     	;# 
  3091  0E95                     	;# 
  3092  0E9C                     	;# 
  3093  0E9D                     	;# 
  3094  0E9E                     	;# 
  3095  0E9F                     	;# 
  3096  0EA0                     	;# 
  3097  0EA1                     	;# 
  3098  0EA2                     	;# 
  3099  0EA3                     	;# 
  3100  0EA4                     	;# 
  3101  0EA5                     	;# 
  3102  0EA6                     	;# 
  3103  0EA7                     	;# 
  3104  0F0F                     	;# 
  3105  0F10                     	;# 
  3106  0F11                     	;# 
  3107  0F12                     	;# 
  3108  0F13                     	;# 
  3109  0F14                     	;# 
  3110  0F15                     	;# 
  3111  0F16                     	;# 
  3112  0F17                     	;# 
  3113  0F18                     	;# 
  3114  0F19                     	;# 
  3115  0F1A                     	;# 
  3116  0F1B                     	;# 
  3117  0F1C                     	;# 
  3118  0F1D                     	;# 
  3119  0F1E                     	;# 
  3120  0F1F                     	;# 
  3121  0F20                     	;# 
  3122  0F21                     	;# 
  3123  0F22                     	;# 
  3124  0F23                     	;# 
  3125  0F24                     	;# 
  3126  0F25                     	;# 
  3127  0F26                     	;# 
  3128  0F27                     	;# 
  3129  0F28                     	;# 
  3130  0F29                     	;# 
  3131  0F2A                     	;# 
  3132  0F2B                     	;# 
  3133  0F2C                     	;# 
  3134  0F2D                     	;# 
  3135  0F2E                     	;# 
  3136  0F2F                     	;# 
  3137  0F30                     	;# 
  3138  0F31                     	;# 
  3139  0F32                     	;# 
  3140  0F33                     	;# 
  3141  0F34                     	;# 
  3142  0F35                     	;# 
  3143  0F36                     	;# 
  3144  0F37                     	;# 
  3145  0FE4                     	;# 
  3146  0FE5                     	;# 
  3147  0FE6                     	;# 
  3148  0FE7                     	;# 
  3149  0FE8                     	;# 
  3150  0FE9                     	;# 
  3151  0FEA                     	;# 
  3152  0FEB                     	;# 
  3153  0FED                     	;# 
  3154  0FEE                     	;# 
  3155  0FEF                     	;# 
  3156                           
  3157 ;; Function _EUSART_is_tx_ready is unused but had its address taken
  3158  0000                     
  3159 ;; Function _EUSART_is_rx_ready is unused but had its address taken
  3160  0000                     
  3161 ;; Function _EUSART_is_tx_done is unused but had its address taken
  3162  0000                     
  3163 ;; Function _EUSART_Write is unused but had its address taken
  3164  0000                     
  3165                           	psect	stringtext1
  3166  0800                     __pstringtext1:	
  3167  0800                     _uart:	
  3168  0800  3400               	retlw	0
  3169  0801  3400               	retlw	0
  3170  0802  349B               	retlw	low _EUSART_Initialize
  3171  0803  3406               	retlw	high _EUSART_Initialize
  3172  0804  34BC               	retlw	low _EUSART_Read
  3173  0805  3406               	retlw	high _EUSART_Read
  3174  0806  3400               	retlw	0
  3175  0807  3400               	retlw	0
  3176  0808  3400               	retlw	0
  3177  0809  3400               	retlw	0
  3178  080A  3400               	retlw	0
  3179  080B  3400               	retlw	0
  3180  080C                     __end_of_uart:	
  3181  0010                     _PIR1bits	set	16
  3182  0095                     _OPTION_REGbits	set	149
  3183  008E                     _TRISC	set	142
  3184  008D                     _TRISB	set	141
  3185  008C                     _TRISA	set	140
  3186  0098                     _OSCTUNE	set	152
  3187  0099                     _OSCCON	set	153
  3188  0473                     _TRISC3	set	1139
  3189  0475                     _TRISC5	set	1141
  3190  04D6                     _PLLR	set	1238
  3191  010C                     _LATAbits	set	268
  3192  010E                     _LATC	set	270
  3193  010D                     _LATB	set	269
  3194  010C                     _LATA	set	268
  3195  0116                     _BORCON	set	278
  3196  019A                     _TX1REG	set	410
  3197  0199                     _RC1REG	set	409
  3198  019D                     _RC1STAbits	set	413
  3199  019E                     _TX1STAbits	set	414
  3200  019C                     _SPBRGH	set	412
  3201  019B                     _SPBRGL	set	411
  3202  019E                     _TX1STA	set	414
  3203  019D                     _RC1STA	set	413
  3204  019F                     _BAUD1CON	set	415
  3205  018C                     _ANSELA	set	396
  3206  018D                     _ANSELB	set	397
  3207  018E                     _ANSELC	set	398
  3208  0211                     _SSPBUF	set	529
  3209  0215                     _SSPCON	set	533
  3210  0214                     _SSPSTAT	set	532
  3211  020E                     _WPUC	set	526
  3212  020C                     _WPUA	set	524
  3213  020D                     _WPUB	set	525
  3214  0214                     _SSP1STATbits	set	532
  3215  0211                     _SSP1BUF	set	529
  3216  0215                     _SSP1CON1bits	set	533
  3217  0212                     _SSP1ADD	set	530
  3218  0215                     _SSP1CON1	set	533
  3219  0214                     _SSP1STAT	set	532
  3220  10A0                     _BF	set	4256
  3221  028E                     _ODCONC	set	654
  3222  028D                     _ODCONB	set	653
  3223  028C                     _ODCONA	set	652
  3224  030E                     _SLRCONC	set	782
  3225  030D                     _SLRCONB	set	781
  3226  030C                     _SLRCONA	set	780
  3227  0E20                     _SSPCLKPPS	set	3616
  3228  0E21                     _SSPDATPPS	set	3617
  3229  0E24                     _RXPPS	set	3620
  3230  0E9F                     _RB7PPS	set	3743
  3231  0E9E                     _RB6PPS	set	3742
  3232  080C                     STR_1:	
  3233  080C  3454               	retlw	84	;'T'
  3234  080D  3468               	retlw	104	;'h'
  3235  080E  3465               	retlw	101	;'e'
  3236  080F  3420               	retlw	32	;' '
  3237  0810  3472               	retlw	114	;'r'
  3238  0811  3465               	retlw	101	;'e'
  3239  0812  3463               	retlw	99	;'c'
  3240  0813  3465               	retlw	101	;'e'
  3241  0814  3469               	retlw	105	;'i'
  3242  0815  3476               	retlw	118	;'v'
  3243  0816  3465               	retlw	101	;'e'
  3244  0817  3464               	retlw	100	;'d'
  3245  0818  3420               	retlw	32	;' '
  3246  0819  3441               	retlw	65	;'A'
  3247  081A  3453               	retlw	83	;'S'
  3248  081B  3443               	retlw	67	;'C'
  3249  081C  3449               	retlw	73	;'I'
  3250  081D  3449               	retlw	73	;'I'
  3251  081E  3420               	retlw	32	;' '
  3252  081F  3463               	retlw	99	;'c'
  3253  0820  3468               	retlw	104	;'h'
  3254  0821  3461               	retlw	97	;'a'
  3255  0822  3472               	retlw	114	;'r'
  3256  0823  3461               	retlw	97	;'a'
  3257  0824  3463               	retlw	99	;'c'
  3258  0825  3474               	retlw	116	;'t'
  3259  0826  3465               	retlw	101	;'e'
  3260  0827  3472               	retlw	114	;'r'
  3261  0828  3420               	retlw	32	;' '
  3262  0829  3469               	retlw	105	;'i'
  3263  082A  3473               	retlw	115	;'s'
  3264  082B  343A               	retlw	58	;':'
  3265  082C  3420               	retlw	32	;' '
  3266  082D  3425               	retlw	37	;'%'
  3267  082E  3463               	retlw	99	;'c'
  3268  082F  3420               	retlw	32	;' '
  3269  0830  340A               	retlw	10
  3270  0831  3400               	retlw	0
  3271                           
  3272                           	psect	stringtext2
  3273  0000                     __pstringtext2:	
  3274                           
  3275                           ; #config settings
  3276  0000                     
  3277                           	psect	cinit
  3278  07EE                     start_initialization:	
  3279  07EE                     __initialization:	
  3280                           
  3281                           ; Clear objects allocated to BANK0
  3282  07EE  3055               	movlw	low __pbssBANK0
  3283  07EF  0084               	movwf	4
  3284  07F0  3000               	movlw	high __pbssBANK0
  3285  07F1  0085               	movwf	5
  3286  07F2  300F               	movlw	15
  3287  07F3  3186  2678  3187   	fcall	clear_ram0
  3288                           
  3289                           ; Clear objects allocated to BANK1
  3290  07F6  30A0               	movlw	low __pbssBANK1
  3291  07F7  0084               	movwf	4
  3292  07F8  3000               	movlw	high __pbssBANK1
  3293  07F9  0085               	movwf	5
  3294  07FA  3020               	movlw	32
  3295  07FB  3186  2678         	fcall	clear_ram0
  3296  07FD                     end_of_initialization:	
  3297                           ;End of C runtime variable initialization code
  3298                           
  3299  07FD                     __end_of__initialization:	
  3300  07FD  0020               	movlb	0
  3301  07FE  3187  2F11         	ljmp	_main	;jump to C main() function
  3302                           
  3303                           	psect	bssBANK0
  3304  0055                     __pbssBANK0:	
  3305  0055                     _nout:	
  3306  0055                     	ds	2
  3307  0057                     _width:	
  3308  0057                     	ds	2
  3309  0059                     _prec:	
  3310  0059                     	ds	2
  3311  005B                     _flags:	
  3312  005B                     	ds	2
  3313  005D                     _EUSART_ErrorHandler:	
  3314  005D                     	ds	2
  3315  005F                     _EUSART_OverrunErrorHandler:	
  3316  005F                     	ds	2
  3317  0061                     _EUSART_FramingErrorHandler:	
  3318  0061                     	ds	2
  3319  0063                     _eusartRxLastError:	
  3320  0063                     	ds	1
  3321                           
  3322                           	psect	bssBANK1
  3323  00A0                     __pbssBANK1:	
  3324  00A0                     _dbuf:	
  3325  00A0                     	ds	32
  3326                           
  3327                           	psect	clrtext
  3328  0678                     clear_ram0:	
  3329                           ;	Called with FSR0 containing the base address, and
  3330                           ;	WREG with the size to clear
  3331                           
  3332  0678  0064               	clrwdt	;clear the watchdog before getting into this loop
  3333  0679                     clrloop0:	
  3334  0679  0180               	clrf	0	;clear RAM location pointed to by FSR
  3335  067A  3101               	addfsr 0,1
  3336  067B  0B89               	decfsz	9,f	;Have we reached the end of clearing yet?
  3337  067C  2E79               	goto	clrloop0	;have we reached the end yet?
  3338  067D  3400               	retlw	0	;all done for this memory range, return
  3339                           
  3340                           	psect	cstackCOMMON
  3341  0070                     __pcstackCOMMON:	
  3342  0070                     ?_EUSART_Initialize:	
  3343  0070                     ?_EUSART_Read:	
  3344                           ; 1 bytes @ 0x0
  3345                           
  3346  0070                     ??_EUSART_Read:	
  3347                           ; 1 bytes @ 0x0
  3348                           
  3349  0070                     ?_PIN_MANAGER_Initialize:	
  3350                           ; 1 bytes @ 0x0
  3351                           
  3352  0070                     ??_PIN_MANAGER_Initialize:	
  3353                           ; 1 bytes @ 0x0
  3354                           
  3355  0070                     ?_OSCILLATOR_Initialize:	
  3356                           ; 1 bytes @ 0x0
  3357                           
  3358  0070                     ??_OSCILLATOR_Initialize:	
  3359                           ; 1 bytes @ 0x0
  3360                           
  3361  0070                     ?_EUSART_SetFramingErrorHandler:	
  3362                           ; 1 bytes @ 0x0
  3363                           
  3364  0070                     ?_EUSART_DefaultFramingErrorHandler:	
  3365                           ; 1 bytes @ 0x0
  3366                           
  3367  0070                     ??_EUSART_DefaultFramingErrorHandler:	
  3368                           ; 1 bytes @ 0x0
  3369                           
  3370  0070                     ?_EUSART_SetOverrunErrorHandler:	
  3371                           ; 1 bytes @ 0x0
  3372                           
  3373  0070                     ?_EUSART_DefaultOverrunErrorHandler:	
  3374                           ; 1 bytes @ 0x0
  3375                           
  3376  0070                     ??_EUSART_DefaultOverrunErrorHandler:	
  3377                           ; 1 bytes @ 0x0
  3378                           
  3379  0070                     ?_EUSART_SetErrorHandler:	
  3380                           ; 1 bytes @ 0x0
  3381                           
  3382  0070                     ?_EUSART_DefaultErrorHandler:	
  3383                           ; 1 bytes @ 0x0
  3384                           
  3385  0070                     ??_EUSART_DefaultErrorHandler:	
  3386                           ; 1 bytes @ 0x0
  3387                           
  3388  0070                     ?_memset:	
  3389                           ; 1 bytes @ 0x0
  3390                           
  3391  0070                     ?_SPI_Initialize:	
  3392                           ; 1 bytes @ 0x0
  3393                           
  3394  0070                     ??_SPI_Initialize:	
  3395                           ; 1 bytes @ 0x0
  3396                           
  3397  0070                     ?_SYSTEM_Initialize:	
  3398                           ; 1 bytes @ 0x0
  3399                           
  3400  0070                     EUSART_SetFramingErrorHandler@interruptHandler:	
  3401                           ; 1 bytes @ 0x0
  3402                           
  3403  0070                     EUSART_SetOverrunErrorHandler@interruptHandler:	
  3404                           ; 2 bytes @ 0x0
  3405                           
  3406  0070                     EUSART_SetErrorHandler@interruptHandler:	
  3407                           ; 2 bytes @ 0x0
  3408                           
  3409  0070                     memset@c:	
  3410                           ; 2 bytes @ 0x0
  3411                           
  3412                           
  3413                           ; 2 bytes @ 0x0
  3414  0070                     	ds	2
  3415  0072                     ??_EUSART_Initialize:	
  3416  0072                     ??_EUSART_SetFramingErrorHandler:	
  3417                           ; 1 bytes @ 0x2
  3418                           
  3419  0072                     ??_EUSART_SetOverrunErrorHandler:	
  3420                           ; 1 bytes @ 0x2
  3421                           
  3422  0072                     ??_EUSART_SetErrorHandler:	
  3423                           ; 1 bytes @ 0x2
  3424                           
  3425  0072                     ??_SYSTEM_Initialize:	
  3426                           ; 1 bytes @ 0x2
  3427                           
  3428  0072                     memset@n:	
  3429                           ; 1 bytes @ 0x2
  3430                           
  3431                           
  3432                           ; 2 bytes @ 0x2
  3433  0072                     	ds	2
  3434  0074                     ??_memset:	
  3435                           
  3436                           ; 1 bytes @ 0x4
  3437  0074                     	ds	2
  3438  0076                     memset@k:	
  3439                           
  3440                           ; 2 bytes @ 0x6
  3441  0076                     	ds	2
  3442  0078                     memset@dest:	
  3443                           
  3444                           ; 1 bytes @ 0x8
  3445  0078                     	ds	1
  3446  0079                     memset@s:	
  3447                           
  3448                           ; 1 bytes @ 0x9
  3449  0079                     	ds	1
  3450  007A                     ?_main:	
  3451  007A                     main@argc:	
  3452                           ; 2 bytes @ 0xA
  3453                           
  3454                           
  3455                           ; 2 bytes @ 0xA
  3456  007A                     	ds	2
  3457  007C                     main@argv:	
  3458                           
  3459                           ; 2 bytes @ 0xC
  3460  007C                     	ds	2
  3461                           
  3462                           	psect	cstackBANK0
  3463  0020                     __pcstackBANK0:	
  3464  0020                     ??_main:	
  3465                           
  3466                           ; 1 bytes @ 0x0
  3467  0020                     	ds	1
  3468  0021                     main@data:	
  3469                           
  3470                           ; 50 bytes @ 0x1
  3471  0021                     	ds	50
  3472  0053                     main@x:	
  3473                           
  3474                           ; 2 bytes @ 0x33
  3475  0053                     	ds	2
  3476                           
  3477                           	psect	maintext
  3478  0711                     __pmaintext:	
  3479 ;;
  3480 ;;Main: autosize = 0, tempsize = 1, incstack = 0, save=0
  3481 ;;
  3482 ;; *************** function _main *****************
  3483 ;; Defined at:
  3484 ;;		line 28 in file "main.c"
  3485 ;; Parameters:    Size  Location     Type
  3486 ;;  argc            2   10[COMMON] int 
  3487 ;;  argv            2   12[COMMON] PTR PTR unsigned char 
  3488 ;; Auto vars:     Size  Location     Type
  3489 ;;  data           50    1[BANK0 ] unsigned char [50]
  3490 ;;  x               2   51[BANK0 ] int 
  3491 ;; Return value:  Size  Location     Type
  3492 ;;                  2   10[COMMON] int 
  3493 ;; Registers used:
  3494 ;;		wreg, fsr1l, fsr1h, status,2, status,0, pclath, cstack
  3495 ;; Tracked objects:
  3496 ;;		On entry : B1F/0
  3497 ;;		On exit  : 0/0
  3498 ;;		Unchanged: 0/0
  3499 ;; Data sizes:     COMMON   BANK0   BANK1   BANK2   BANK3   BANK4   BANK5   BANK6   BANK7   BANK8   BANK9  BANK10  BANK1
      +1  BANK12
  3500 ;;      Params:         4       0       0       0       0       0       0       0       0       0       0       0       
      +0       0
  3501 ;;      Locals:         0      52       0       0       0       0       0       0       0       0       0       0       
      +0       0
  3502 ;;      Temps:          0       1       0       0       0       0       0       0       0       0       0       0       
      +0       0
  3503 ;;      Totals:         4      53       0       0       0       0       0       0       0       0       0       0       
      +0       0
  3504 ;;Total ram usage:       57 bytes
  3505 ;; Hardware stack levels required when called:    3
  3506 ;; This function calls:
  3507 ;;		_EUSART_Initialize
  3508 ;;		_EUSART_Read
  3509 ;;		_OSCILLATOR_Initialize
  3510 ;;		_PIN_MANAGER_Initialize
  3511 ;;		_SYSTEM_Initialize
  3512 ;;		_memset
  3513 ;; This function is called by:
  3514 ;;		Startup code after reset
  3515 ;; This function uses a non-reentrant model
  3516 ;;
  3517                           
  3518                           
  3519                           ;psect for function _main
  3520  0711                     _main:	
  3521                           
  3522                           ;main.c: 28: int main(int argc, char** argv);main.c: 29: {;main.c: 31:     SYSTEM_Initia
      +                          lize();
  3523                           
  3524                           ;incstack = 0
  3525                           ; Regs used in _main: [wreg+fsr1l+fsr1h+status,2+status,0+pclath+cstack]
  3526  0711  3186  268F  3187   	fcall	_SYSTEM_Initialize
  3527                           
  3528                           ;main.c: 32:     OSCILLATOR_Initialize();
  3529  0714  3186  2685  3187   	fcall	_OSCILLATOR_Initialize
  3530                           
  3531                           ;main.c: 36:     PIN_MANAGER_Initialize();
  3532  0717  3186  26E0  3187   	fcall	_PIN_MANAGER_Initialize
  3533                           
  3534                           ;main.c: 37:     _delay((unsigned long)((10)*(32000000/4000.0)));
  3535  071A  3068               	movlw	104
  3536  071B  0020               	movlb	0	; select bank0
  3537  071C  00A0               	movwf	??_main
  3538  071D  30E4               	movlw	228
  3539  071E                     u377:	
  3540  071E  0B89               	decfsz	9,f
  3541  071F  2F1E               	goto	u377
  3542  0720  0BA0               	decfsz	??_main,f
  3543  0721  2F1E               	goto	u377
  3544  0722  0000               	nop
  3545                           
  3546                           ;main.c: 43:     _delay((unsigned long)((10)*(32000000/4000.0)));
  3547  0723  3068               	movlw	104
  3548  0724  0020               	movlb	0	; select bank0
  3549  0725  00A0               	movwf	??_main
  3550  0726  30E4               	movlw	228
  3551  0727                     u387:	
  3552  0727  0B89               	decfsz	9,f
  3553  0728  2F27               	goto	u387
  3554  0729  0BA0               	decfsz	??_main,f
  3555  072A  2F27               	goto	u387
  3556  072B  0000               	nop
  3557                           
  3558                           ;main.c: 45:     EUSART_Initialize();
  3559  072C  3186  269B  3187   	fcall	_EUSART_Initialize
  3560                           
  3561                           ;main.c: 53:     int x = 0;
  3562  072F  0020               	movlb	0	; select bank0
  3563  0730  01D3               	clrf	main@x
  3564  0731  01D4               	clrf	main@x+1
  3565                           
  3566                           ;main.c: 54:     uint8_t data[50];;main.c: 55:     memset(data, 0, sizeof(data));
  3567  0732  3000               	movlw	0
  3568  0733  00F0               	movwf	memset@c
  3569  0734  00F1               	movwf	memset@c+1
  3570  0735  3032               	movlw	50
  3571  0736  00F2               	movwf	memset@n
  3572  0737  3000               	movlw	0
  3573  0738  00F3               	movwf	memset@n+1
  3574  0739  3021               	movlw	(low (main@data| 0))& (0+255)
  3575  073A  3187  2759  3187   	fcall	_memset
  3576  073D                     l1298:	
  3577                           
  3578                           ;main.c: 59:     {;main.c: 87:         data[x] = EUSART_Read();
  3579  073D  3186  26BC  3187   	fcall	_EUSART_Read
  3580  0740  0020               	movlb	0	; select bank0
  3581  0741  00A0               	movwf	??_main
  3582  0742  0853               	movf	main@x,w
  3583  0743  3E21               	addlw	(low (main@data| 0))& (0+255)
  3584  0744  0086               	movwf	6
  3585  0745  0187               	clrf	7
  3586  0746  0820               	movf	??_main,w
  3587  0747  0081               	movwf	1
  3588                           
  3589                           ;main.c: 88:         x++;
  3590  0748  3001               	movlw	1
  3591  0749  07D3               	addwf	main@x,f
  3592  074A  3000               	movlw	0
  3593  074B  3DD4               	addwfc	main@x+1,f
  3594                           
  3595                           ;main.c: 90:         if (x == 49)
  3596  074C  3031               	movlw	49
  3597  074D  0653               	xorwf	main@x,w
  3598  074E  0454               	iorwf	main@x+1,w
  3599  074F  1D03               	btfss	3,2
  3600  0750  2F53               	goto	l1306
  3601                           
  3602                           ;main.c: 91:         {;main.c: 92:             x = 0;
  3603  0751  01D3               	clrf	main@x
  3604  0752  01D4               	clrf	main@x+1
  3605  0753                     l1306:	
  3606                           
  3607                           ;main.c: 101:         if (data[1] > 0)
  3608  0753  0822               	movf	main@data+1,w
  3609  0754  1903               	btfsc	3,2
  3610  0755  2F3D               	goto	l1298
  3611                           
  3612                           ;main.c: 102:         {;main.c: 103:             do { LATAbits.LATA1 = 1; } while(0);
  3613  0756  0022               	movlb	2	; select bank2
  3614  0757  148C               	bsf	12,1	;volatile
  3615  0758  2F3D               	goto	l1298
  3616  0759                     __end_of_main:	
  3617                           
  3618                           	psect	text1
  3619  0759                     __ptext1:	
  3620 ;; *************** function _memset *****************
  3621 ;; Defined at:
  3622 ;;		line 4 in file "C:\Program Files (x86)\Microchip\xc8\v2.05\pic\sources\c99\common\memset.c"
  3623 ;; Parameters:    Size  Location     Type
  3624 ;;  dest            1    wreg     PTR void 
  3625 ;;		 -> main@data(50), 
  3626 ;;  c               2    0[COMMON] int 
  3627 ;;  n               2    2[COMMON] unsigned int 
  3628 ;; Auto vars:     Size  Location     Type
  3629 ;;  dest            1    8[COMMON] PTR void 
  3630 ;;		 -> main@data(50), 
  3631 ;;  k               2    6[COMMON] unsigned int 
  3632 ;;  s               1    9[COMMON] PTR unsigned char 
  3633 ;;		 -> main@data(50), 
  3634 ;; Return value:  Size  Location     Type
  3635 ;;                  1    wreg      PTR void 
  3636 ;; Registers used:
  3637 ;;		wreg, fsr1l, fsr1h, status,2, status,0
  3638 ;; Tracked objects:
  3639 ;;		On entry : 0/0
  3640 ;;		On exit  : 0/0
  3641 ;;		Unchanged: 0/0
  3642 ;; Data sizes:     COMMON   BANK0   BANK1   BANK2   BANK3   BANK4   BANK5   BANK6   BANK7   BANK8   BANK9  BANK10  BANK1
      +1  BANK12
  3643 ;;      Params:         4       0       0       0       0       0       0       0       0       0       0       0       
      +0       0
  3644 ;;      Locals:         4       0       0       0       0       0       0       0       0       0       0       0       
      +0       0
  3645 ;;      Temps:          2       0       0       0       0       0       0       0       0       0       0       0       
      +0       0
  3646 ;;      Totals:        10       0       0       0       0       0       0       0       0       0       0       0       
      +0       0
  3647 ;;Total ram usage:       10 bytes
  3648 ;; Hardware stack levels used:    1
  3649 ;; This function calls:
  3650 ;;		Nothing
  3651 ;; This function is called by:
  3652 ;;		_main
  3653 ;; This function uses a non-reentrant model
  3654 ;;
  3655                           
  3656                           
  3657                           ;psect for function _memset
  3658  0759                     _memset:	
  3659                           
  3660                           ;incstack = 0
  3661                           ; Regs used in _memset: [wreg+fsr1l+fsr1h+status,2+status,0]
  3662                           ;memset@dest stored from wreg
  3663  0759  00F8               	movwf	memset@dest
  3664  075A  0878               	movf	memset@dest,w
  3665  075B  00F4               	movwf	??_memset
  3666  075C  0874               	movf	??_memset,w
  3667  075D  00F9               	movwf	memset@s
  3668  075E  0872               	movf	memset@n,w
  3669  075F  0473               	iorwf	memset@n+1,w
  3670  0760  1903               	btfsc	3,2
  3671  0761  0008               	return
  3672  0762  0870               	movf	memset@c,w
  3673  0763  00F4               	movwf	??_memset
  3674  0764  0879               	movf	memset@s,w
  3675  0765  0086               	movwf	6
  3676  0766  0187               	clrf	7
  3677  0767  0874               	movf	??_memset,w
  3678  0768  0081               	movwf	1
  3679  0769  0870               	movf	memset@c,w
  3680  076A  00F4               	movwf	??_memset
  3681  076B  0872               	movf	memset@n,w
  3682  076C  0779               	addwf	memset@s,w
  3683  076D  00F5               	movwf	??_memset+1
  3684  076E  0875               	movf	??_memset+1,w
  3685  076F  3EFF               	addlw	255
  3686  0770  0086               	movwf	6
  3687  0771  0187               	clrf	7
  3688  0772  0874               	movf	??_memset,w
  3689  0773  0081               	movwf	1
  3690  0774  3000               	movlw	0
  3691  0775  0273               	subwf	memset@n+1,w
  3692  0776  3003               	movlw	3
  3693  0777  1903               	skipnz
  3694  0778  0272               	subwf	memset@n,w
  3695  0779  1C03               	btfss	3,0
  3696  077A  0008               	return
  3697  077B  0870               	movf	memset@c,w
  3698  077C  00F4               	movwf	??_memset
  3699  077D  0A79               	incf	memset@s,w
  3700  077E  0086               	movwf	6
  3701  077F  0187               	clrf	7
  3702  0780  0874               	movf	??_memset,w
  3703  0781  0081               	movwf	1
  3704  0782  0870               	movf	memset@c,w
  3705  0783  00F4               	movwf	??_memset
  3706  0784  0879               	movf	memset@s,w
  3707  0785  3E02               	addlw	2
  3708  0786  0086               	movwf	6
  3709  0787  0187               	clrf	7
  3710  0788  0874               	movf	??_memset,w
  3711  0789  0081               	movwf	1
  3712  078A  0870               	movf	memset@c,w
  3713  078B  00F4               	movwf	??_memset
  3714  078C  0872               	movf	memset@n,w
  3715  078D  0779               	addwf	memset@s,w
  3716  078E  00F5               	movwf	??_memset+1
  3717  078F  0875               	movf	??_memset+1,w
  3718  0790  3EFE               	addlw	254
  3719  0791  0086               	movwf	6
  3720  0792  0187               	clrf	7
  3721  0793  0874               	movf	??_memset,w
  3722  0794  0081               	movwf	1
  3723  0795  0870               	movf	memset@c,w
  3724  0796  00F4               	movwf	??_memset
  3725  0797  0872               	movf	memset@n,w
  3726  0798  0779               	addwf	memset@s,w
  3727  0799  00F5               	movwf	??_memset+1
  3728  079A  0875               	movf	??_memset+1,w
  3729  079B  3EFD               	addlw	253
  3730  079C  0086               	movwf	6
  3731  079D  0187               	clrf	7
  3732  079E  0874               	movf	??_memset,w
  3733  079F  0081               	movwf	1
  3734  07A0  3000               	movlw	0
  3735  07A1  0273               	subwf	memset@n+1,w
  3736  07A2  3007               	movlw	7
  3737  07A3  1903               	skipnz
  3738  07A4  0272               	subwf	memset@n,w
  3739  07A5  1C03               	btfss	3,0
  3740  07A6  0008               	return
  3741  07A7  0870               	movf	memset@c,w
  3742  07A8  00F4               	movwf	??_memset
  3743  07A9  0879               	movf	memset@s,w
  3744  07AA  3E03               	addlw	3
  3745  07AB  0086               	movwf	6
  3746  07AC  0187               	clrf	7
  3747  07AD  0874               	movf	??_memset,w
  3748  07AE  0081               	movwf	1
  3749  07AF  0870               	movf	memset@c,w
  3750  07B0  00F4               	movwf	??_memset
  3751  07B1  0872               	movf	memset@n,w
  3752  07B2  0779               	addwf	memset@s,w
  3753  07B3  00F5               	movwf	??_memset+1
  3754  07B4  0875               	movf	??_memset+1,w
  3755  07B5  3EFC               	addlw	252
  3756  07B6  0086               	movwf	6
  3757  07B7  0187               	clrf	7
  3758  07B8  0874               	movf	??_memset,w
  3759  07B9  0081               	movwf	1
  3760  07BA  3000               	movlw	0
  3761  07BB  0273               	subwf	memset@n+1,w
  3762  07BC  3009               	movlw	9
  3763  07BD  1903               	skipnz
  3764  07BE  0272               	subwf	memset@n,w
  3765  07BF  1C03               	btfss	3,0
  3766  07C0  0008               	return
  3767  07C1  0979               	comf	memset@s,w
  3768  07C2  00F4               	movwf	??_memset
  3769  07C3  097A               	comf	memset@s+1,w
  3770  07C4  00F5               	movwf	??_memset+1
  3771  07C5  0AF4               	incf	??_memset,f
  3772  07C6  1903               	skipnz
  3773  07C7  0AF5               	incf	??_memset+1,f
  3774  07C8  3003               	movlw	3
  3775  07C9  0574               	andwf	??_memset,w
  3776  07CA  00F6               	movwf	memset@k
  3777  07CB  3000               	movlw	0
  3778  07CC  0575               	andwf	??_memset+1,w
  3779  07CD  00F7               	movwf	memset@k+1
  3780  07CE  0876               	movf	memset@k,w
  3781  07CF  00F4               	movwf	??_memset
  3782  07D0  0874               	movf	??_memset,w
  3783  07D1  07F9               	addwf	memset@s,f
  3784  07D2  0876               	movf	memset@k,w
  3785  07D3  02F2               	subwf	memset@n,f
  3786  07D4  0877               	movf	memset@k+1,w
  3787  07D5  3BF3               	subwfb	memset@n+1,f
  3788  07D6  30FC               	movlw	252
  3789  07D7  05F2               	andwf	memset@n,f
  3790  07D8  30FF               	movlw	255
  3791  07D9  05F3               	andwf	memset@n+1,f
  3792  07DA                     l1284:	
  3793  07DA  0872               	movf	memset@n,w
  3794  07DB  0473               	iorwf	memset@n+1,w
  3795  07DC  1903               	btfsc	3,2
  3796  07DD  0008               	return
  3797  07DE  0870               	movf	memset@c,w
  3798  07DF  00F4               	movwf	??_memset
  3799  07E0  0879               	movf	memset@s,w
  3800  07E1  0086               	movwf	6
  3801  07E2  0187               	clrf	7
  3802  07E3  0874               	movf	??_memset,w
  3803  07E4  0081               	movwf	1
  3804  07E5  3001               	movlw	1
  3805  07E6  02F2               	subwf	memset@n,f
  3806  07E7  3000               	movlw	0
  3807  07E8  3BF3               	subwfb	memset@n+1,f
  3808  07E9  3001               	movlw	1
  3809  07EA  00F4               	movwf	??_memset
  3810  07EB  0874               	movf	??_memset,w
  3811  07EC  07F9               	addwf	memset@s,f
  3812  07ED  2FDA               	goto	l1284
  3813  07EE                     __end_of_memset:	
  3814                           
  3815                           	psect	text2
  3816  068F                     __ptext2:	
  3817 ;; *************** function _SYSTEM_Initialize *****************
  3818 ;; Defined at:
  3819 ;;		line 50 in file "mcc_generated_files/mcc.c"
  3820 ;; Parameters:    Size  Location     Type
  3821 ;;		None
  3822 ;; Auto vars:     Size  Location     Type
  3823 ;;		None
  3824 ;; Return value:  Size  Location     Type
  3825 ;;                  1    wreg      void 
  3826 ;; Registers used:
  3827 ;;		wreg, status,2, status,0, pclath, cstack
  3828 ;; Tracked objects:
  3829 ;;		On entry : 0/0
  3830 ;;		On exit  : 0/0
  3831 ;;		Unchanged: 0/0
  3832 ;; Data sizes:     COMMON   BANK0   BANK1   BANK2   BANK3   BANK4   BANK5   BANK6   BANK7   BANK8   BANK9  BANK10  BANK1
      +1  BANK12
  3833 ;;      Params:         0       0       0       0       0       0       0       0       0       0       0       0       
      +0       0
  3834 ;;      Locals:         0       0       0       0       0       0       0       0       0       0       0       0       
      +0       0
  3835 ;;      Temps:          0       0       0       0       0       0       0       0       0       0       0       0       
      +0       0
  3836 ;;      Totals:         0       0       0       0       0       0       0       0       0       0       0       0       
      +0       0
  3837 ;;Total ram usage:        0 bytes
  3838 ;; Hardware stack levels used:    1
  3839 ;; Hardware stack levels required when called:    2
  3840 ;; This function calls:
  3841 ;;		_EUSART_Initialize
  3842 ;;		_OSCILLATOR_Initialize
  3843 ;;		_PIN_MANAGER_Initialize
  3844 ;;		_SPI_Initialize
  3845 ;; This function is called by:
  3846 ;;		_main
  3847 ;; This function uses a non-reentrant model
  3848 ;;
  3849                           
  3850                           
  3851                           ;psect for function _SYSTEM_Initialize
  3852  068F                     _SYSTEM_Initialize:	
  3853                           
  3854                           ;mcc_generated_files/mcc.c: 52:     PIN_MANAGER_Initialize();
  3855                           
  3856                           ;incstack = 0
  3857                           ; Regs used in _SYSTEM_Initialize: [wreg+status,2+status,0+pclath+cstack]
  3858  068F  3186  26E0  3186   	fcall	_PIN_MANAGER_Initialize
  3859                           
  3860                           ;mcc_generated_files/mcc.c: 53:     OSCILLATOR_Initialize();
  3861  0692  3186  2685  3186   	fcall	_OSCILLATOR_Initialize
  3862                           
  3863                           ;mcc_generated_files/mcc.c: 54:     SPI_Initialize();
  3864  0695  3186  267E  3186   	fcall	_SPI_Initialize
  3865                           
  3866                           ;mcc_generated_files/mcc.c: 55:     EUSART_Initialize();
  3867  0698  3186  269B         	fcall	_EUSART_Initialize
  3868  069A  0008               	return
  3869  069B                     __end_of_SYSTEM_Initialize:	
  3870                           
  3871                           	psect	text3
  3872  067E                     __ptext3:	
  3873 ;; *************** function _SPI_Initialize *****************
  3874 ;; Defined at:
  3875 ;;		line 65 in file "mcc_generated_files/spi.c"
  3876 ;; Parameters:    Size  Location     Type
  3877 ;;		None
  3878 ;; Auto vars:     Size  Location     Type
  3879 ;;		None
  3880 ;; Return value:  Size  Location     Type
  3881 ;;                  1    wreg      void 
  3882 ;; Registers used:
  3883 ;;		wreg, status,2
  3884 ;; Tracked objects:
  3885 ;;		On entry : 0/0
  3886 ;;		On exit  : 0/0
  3887 ;;		Unchanged: 0/0
  3888 ;; Data sizes:     COMMON   BANK0   BANK1   BANK2   BANK3   BANK4   BANK5   BANK6   BANK7   BANK8   BANK9  BANK10  BANK1
      +1  BANK12
  3889 ;;      Params:         0       0       0       0       0       0       0       0       0       0       0       0       
      +0       0
  3890 ;;      Locals:         0       0       0       0       0       0       0       0       0       0       0       0       
      +0       0
  3891 ;;      Temps:          0       0       0       0       0       0       0       0       0       0       0       0       
      +0       0
  3892 ;;      Totals:         0       0       0       0       0       0       0       0       0       0       0       0       
      +0       0
  3893 ;;Total ram usage:        0 bytes
  3894 ;; Hardware stack levels used:    1
  3895 ;; This function calls:
  3896 ;;		Nothing
  3897 ;; This function is called by:
  3898 ;;		_SYSTEM_Initialize
  3899 ;; This function uses a non-reentrant model
  3900 ;;
  3901                           
  3902                           
  3903                           ;psect for function _SPI_Initialize
  3904  067E                     _SPI_Initialize:	
  3905                           
  3906                           ;mcc_generated_files/spi.c: 70:     SSP1STAT = 0xC0;
  3907                           
  3908                           ;incstack = 0
  3909                           ; Regs used in _SPI_Initialize: [wreg+status,2]
  3910  067E  30C0               	movlw	192
  3911  067F  0024               	movlb	4	; select bank4
  3912  0680  0094               	movwf	20	;volatile
  3913                           
  3914                           ;mcc_generated_files/spi.c: 73:     SSP1CON1 = 0x20;
  3915  0681  3020               	movlw	32
  3916  0682  0095               	movwf	21	;volatile
  3917                           
  3918                           ;mcc_generated_files/spi.c: 76:     SSP1ADD = 0x00;
  3919  0683  0192               	clrf	18	;volatile
  3920  0684  0008               	return
  3921  0685                     __end_of_SPI_Initialize:	
  3922                           
  3923                           	psect	text4
  3924  06E0                     __ptext4:	
  3925 ;; *************** function _PIN_MANAGER_Initialize *****************
  3926 ;; Defined at:
  3927 ;;		line 55 in file "mcc_generated_files/pin_manager.c"
  3928 ;; Parameters:    Size  Location     Type
  3929 ;;		None
  3930 ;; Auto vars:     Size  Location     Type
  3931 ;;		None
  3932 ;; Return value:  Size  Location     Type
  3933 ;;                  1    wreg      void 
  3934 ;; Registers used:
  3935 ;;		wreg, status,2
  3936 ;; Tracked objects:
  3937 ;;		On entry : 0/0
  3938 ;;		On exit  : 0/0
  3939 ;;		Unchanged: 0/0
  3940 ;; Data sizes:     COMMON   BANK0   BANK1   BANK2   BANK3   BANK4   BANK5   BANK6   BANK7   BANK8   BANK9  BANK10  BANK1
      +1  BANK12
  3941 ;;      Params:         0       0       0       0       0       0       0       0       0       0       0       0       
      +0       0
  3942 ;;      Locals:         0       0       0       0       0       0       0       0       0       0       0       0       
      +0       0
  3943 ;;      Temps:          0       0       0       0       0       0       0       0       0       0       0       0       
      +0       0
  3944 ;;      Totals:         0       0       0       0       0       0       0       0       0       0       0       0       
      +0       0
  3945 ;;Total ram usage:        0 bytes
  3946 ;; Hardware stack levels used:    1
  3947 ;; This function calls:
  3948 ;;		Nothing
  3949 ;; This function is called by:
  3950 ;;		_SYSTEM_Initialize
  3951 ;;		_main
  3952 ;; This function uses a non-reentrant model
  3953 ;;
  3954                           
  3955                           
  3956                           ;psect for function _PIN_MANAGER_Initialize
  3957  06E0                     _PIN_MANAGER_Initialize:	
  3958                           
  3959                           ;mcc_generated_files/pin_manager.c: 60:     LATA = 0x00;
  3960                           
  3961                           ;incstack = 0
  3962                           ; Regs used in _PIN_MANAGER_Initialize: [wreg+status,2]
  3963  06E0  0022               	movlb	2	; select bank2
  3964  06E1  018C               	clrf	12	;volatile
  3965                           
  3966                           ;mcc_generated_files/pin_manager.c: 61:     LATB = 0x00;
  3967  06E2  018D               	clrf	13	;volatile
  3968                           
  3969                           ;mcc_generated_files/pin_manager.c: 62:     LATC = 0x00;
  3970  06E3  018E               	clrf	14	;volatile
  3971                           
  3972                           ;mcc_generated_files/pin_manager.c: 67:     TRISA = 0x37;
  3973  06E4  3037               	movlw	55
  3974  06E5  0021               	movlb	1	; select bank1
  3975  06E6  008C               	movwf	12	;volatile
  3976                           
  3977                           ;mcc_generated_files/pin_manager.c: 68:     TRISB = 0x30;
  3978  06E7  3030               	movlw	48
  3979  06E8  008D               	movwf	13	;volatile
  3980                           
  3981                           ;mcc_generated_files/pin_manager.c: 69:     TRISC = 0xFF;
  3982  06E9  30FF               	movlw	255
  3983  06EA  008E               	movwf	14	;volatile
  3984                           
  3985                           ;mcc_generated_files/pin_manager.c: 74:     ANSELC = 0xCF;
  3986  06EB  30CF               	movlw	207
  3987  06EC  0023               	movlb	3	; select bank3
  3988  06ED  008E               	movwf	14	;volatile
  3989                           
  3990                           ;mcc_generated_files/pin_manager.c: 75:     ANSELB = 0x80;
  3991  06EE  3080               	movlw	128
  3992  06EF  008D               	movwf	13	;volatile
  3993                           
  3994                           ;mcc_generated_files/pin_manager.c: 76:     ANSELA = 0x17;
  3995  06F0  3017               	movlw	23
  3996  06F1  008C               	movwf	12	;volatile
  3997                           
  3998                           ;mcc_generated_files/pin_manager.c: 81:     WPUB = 0x00;
  3999  06F2  0024               	movlb	4	; select bank4
  4000  06F3  018D               	clrf	13	;volatile
  4001                           
  4002                           ;mcc_generated_files/pin_manager.c: 82:     WPUA = 0x00;
  4003  06F4  018C               	clrf	12	;volatile
  4004                           
  4005                           ;mcc_generated_files/pin_manager.c: 83:     WPUC = 0x00;
  4006  06F5  018E               	clrf	14	;volatile
  4007                           
  4008                           ;mcc_generated_files/pin_manager.c: 84:     OPTION_REGbits.nWPUEN = 1;
  4009  06F6  0021               	movlb	1	; select bank1
  4010  06F7  1795               	bsf	21,7	;volatile
  4011                           
  4012                           ;mcc_generated_files/pin_manager.c: 89:     ODCONA = 0x00;
  4013  06F8  0025               	movlb	5	; select bank5
  4014  06F9  018C               	clrf	12	;volatile
  4015                           
  4016                           ;mcc_generated_files/pin_manager.c: 90:     ODCONB = 0x00;
  4017  06FA  018D               	clrf	13	;volatile
  4018                           
  4019                           ;mcc_generated_files/pin_manager.c: 91:     ODCONC = 0x00;
  4020  06FB  018E               	clrf	14	;volatile
  4021                           
  4022                           ;mcc_generated_files/pin_manager.c: 96:     SLRCONA = 0x37;
  4023  06FC  3037               	movlw	55
  4024  06FD  0026               	movlb	6	; select bank6
  4025  06FE  008C               	movwf	12	;volatile
  4026                           
  4027                           ;mcc_generated_files/pin_manager.c: 97:     SLRCONB = 0xF0;
  4028  06FF  30F0               	movlw	240
  4029  0700  008D               	movwf	13	;volatile
  4030                           
  4031                           ;mcc_generated_files/pin_manager.c: 98:     SLRCONC = 0xFF;
  4032  0701  30FF               	movlw	255
  4033  0702  008E               	movwf	14	;volatile
  4034                           
  4035                           ;mcc_generated_files/pin_manager.c: 107:     RXPPS = 0x0D;
  4036  0703  300D               	movlw	13
  4037  0704  003C               	movlb	28	; select bank28
  4038  0705  00A4               	movwf	36	;volatile
  4039                           
  4040                           ;mcc_generated_files/pin_manager.c: 108:     SSPDATPPS = 0x0C;
  4041  0706  300C               	movlw	12
  4042  0707  00A1               	movwf	33	;volatile
  4043                           
  4044                           ;mcc_generated_files/pin_manager.c: 109:     RB6PPS = 0x10;
  4045  0708  3010               	movlw	16
  4046  0709  003D               	movlb	29	; select bank29
  4047  070A  009E               	movwf	30	;volatile
  4048                           
  4049                           ;mcc_generated_files/pin_manager.c: 110:     RB7PPS = 0x12;
  4050  070B  3012               	movlw	18
  4051  070C  009F               	movwf	31	;volatile
  4052                           
  4053                           ;mcc_generated_files/pin_manager.c: 111:     SSPCLKPPS = 0x0E;
  4054  070D  300E               	movlw	14
  4055  070E  003C               	movlb	28	; select bank28
  4056  070F  00A0               	movwf	32	;volatile
  4057  0710  0008               	return
  4058  0711                     __end_of_PIN_MANAGER_Initialize:	
  4059                           
  4060                           	psect	text5
  4061  0685                     __ptext5:	
  4062 ;; *************** function _OSCILLATOR_Initialize *****************
  4063 ;; Defined at:
  4064 ;;		line 58 in file "mcc_generated_files/mcc.c"
  4065 ;; Parameters:    Size  Location     Type
  4066 ;;		None
  4067 ;; Auto vars:     Size  Location     Type
  4068 ;;		None
  4069 ;; Return value:  Size  Location     Type
  4070 ;;                  1    wreg      void 
  4071 ;; Registers used:
  4072 ;;		wreg, status,2
  4073 ;; Tracked objects:
  4074 ;;		On entry : 0/0
  4075 ;;		On exit  : 0/0
  4076 ;;		Unchanged: 0/0
  4077 ;; Data sizes:     COMMON   BANK0   BANK1   BANK2   BANK3   BANK4   BANK5   BANK6   BANK7   BANK8   BANK9  BANK10  BANK1
      +1  BANK12
  4078 ;;      Params:         0       0       0       0       0       0       0       0       0       0       0       0       
      +0       0
  4079 ;;      Locals:         0       0       0       0       0       0       0       0       0       0       0       0       
      +0       0
  4080 ;;      Temps:          0       0       0       0       0       0       0       0       0       0       0       0       
      +0       0
  4081 ;;      Totals:         0       0       0       0       0       0       0       0       0       0       0       0       
      +0       0
  4082 ;;Total ram usage:        0 bytes
  4083 ;; Hardware stack levels used:    1
  4084 ;; This function calls:
  4085 ;;		Nothing
  4086 ;; This function is called by:
  4087 ;;		_SYSTEM_Initialize
  4088 ;;		_main
  4089 ;; This function uses a non-reentrant model
  4090 ;;
  4091                           
  4092                           
  4093                           ;psect for function _OSCILLATOR_Initialize
  4094  0685                     _OSCILLATOR_Initialize:	
  4095                           
  4096                           ;mcc_generated_files/mcc.c: 61:     OSCCON = 0xF0;
  4097                           
  4098                           ;incstack = 0
  4099                           ; Regs used in _OSCILLATOR_Initialize: [wreg+status,2]
  4100  0685  30F0               	movlw	240
  4101  0686  0021               	movlb	1	; select bank1
  4102  0687  0099               	movwf	25	;volatile
  4103                           
  4104                           ;mcc_generated_files/mcc.c: 63:     OSCTUNE = 0x00;
  4105  0688  0198               	clrf	24	;volatile
  4106                           
  4107                           ;mcc_generated_files/mcc.c: 65:     BORCON = 0x00;
  4108  0689  0022               	movlb	2	; select bank2
  4109  068A  0196               	clrf	22	;volatile
  4110  068B                     l81:	
  4111                           ;mcc_generated_files/mcc.c: 68:     {;mcc_generated_files/mcc.c: 69:     }
  4112                           
  4113                           
  4114                           ;mcc_generated_files/mcc.c: 67:     while(PLLR == 0)
  4115  068B  0021               	movlb	1	; select bank1
  4116  068C  1B1A               	btfsc	26,6	;volatile
  4117  068D  0008               	return
  4118  068E  2E8B               	goto	l81
  4119  068F                     __end_of_OSCILLATOR_Initialize:	
  4120                           
  4121                           	psect	text6
  4122  069B                     __ptext6:	
  4123 ;; *************** function _EUSART_Initialize *****************
  4124 ;; Defined at:
  4125 ;;		line 65 in file "mcc_generated_files/eusart.c"
  4126 ;; Parameters:    Size  Location     Type
  4127 ;;		None
  4128 ;; Auto vars:     Size  Location     Type
  4129 ;;		None
  4130 ;; Return value:  Size  Location     Type
  4131 ;;                  1    wreg      void 
  4132 ;; Registers used:
  4133 ;;		wreg, status,2, status,0, pclath, cstack
  4134 ;; Tracked objects:
  4135 ;;		On entry : 0/0
  4136 ;;		On exit  : 0/0
  4137 ;;		Unchanged: 0/0
  4138 ;; Data sizes:     COMMON   BANK0   BANK1   BANK2   BANK3   BANK4   BANK5   BANK6   BANK7   BANK8   BANK9  BANK10  BANK1
      +1  BANK12
  4139 ;;      Params:         0       0       0       0       0       0       0       0       0       0       0       0       
      +0       0
  4140 ;;      Locals:         0       0       0       0       0       0       0       0       0       0       0       0       
      +0       0
  4141 ;;      Temps:          0       0       0       0       0       0       0       0       0       0       0       0       
      +0       0
  4142 ;;      Totals:         0       0       0       0       0       0       0       0       0       0       0       0       
      +0       0
  4143 ;;Total ram usage:        0 bytes
  4144 ;; Hardware stack levels used:    1
  4145 ;; Hardware stack levels required when called:    1
  4146 ;; This function calls:
  4147 ;;		_EUSART_SetErrorHandler
  4148 ;;		_EUSART_SetFramingErrorHandler
  4149 ;;		_EUSART_SetOverrunErrorHandler
  4150 ;; This function is called by:
  4151 ;;		_SYSTEM_Initialize
  4152 ;;		_main
  4153 ;; This function uses a non-reentrant model
  4154 ;;
  4155                           
  4156                           
  4157                           ;psect for function _EUSART_Initialize
  4158  069B                     _EUSART_Initialize:	
  4159                           
  4160                           ;mcc_generated_files/eusart.c: 70:     BAUD1CON = 0x08;
  4161                           
  4162                           ;incstack = 0
  4163                           ; Regs used in _EUSART_Initialize: [wreg+status,2+status,0+pclath+cstack]
  4164  069B  3008               	movlw	8
  4165  069C  0023               	movlb	3	; select bank3
  4166  069D  009F               	movwf	31	;volatile
  4167                           
  4168                           ;mcc_generated_files/eusart.c: 73:     RC1STA = 0xD8;
  4169  069E  30D8               	movlw	216
  4170  069F  009D               	movwf	29	;volatile
  4171                           
  4172                           ;mcc_generated_files/eusart.c: 76:     TX1STA = 0x04;
  4173  06A0  3004               	movlw	4
  4174  06A1  009E               	movwf	30	;volatile
  4175                           
  4176                           ;mcc_generated_files/eusart.c: 79:     SPBRGL = 0x44;
  4177  06A2  3044               	movlw	68
  4178  06A3  009B               	movwf	27	;volatile
  4179                           
  4180                           ;mcc_generated_files/eusart.c: 82:     SPBRGH = 0x00;
  4181  06A4  019C               	clrf	28	;volatile
  4182                           
  4183                           ;mcc_generated_files/eusart.c: 85:     EUSART_SetFramingErrorHandler(EUSART_DefaultFrami
      +                          ngErrorHandler);
  4184  06A5  3061               	movlw	low _EUSART_DefaultFramingErrorHandler
  4185  06A6  00F0               	movwf	EUSART_SetFramingErrorHandler@interruptHandler
  4186  06A7  3006               	movlw	high _EUSART_DefaultFramingErrorHandler
  4187  06A8  00F1               	movwf	EUSART_SetFramingErrorHandler@interruptHandler+1
  4188  06A9  3186  266C  3186   	fcall	_EUSART_SetFramingErrorHandler
  4189                           
  4190                           ;mcc_generated_files/eusart.c: 86:     EUSART_SetOverrunErrorHandler(EUSART_DefaultOverr
      +                          unErrorHandler);
  4191  06AC  3062               	movlw	low _EUSART_DefaultOverrunErrorHandler
  4192  06AD  00F0               	movwf	EUSART_SetOverrunErrorHandler@interruptHandler
  4193  06AE  3006               	movlw	high _EUSART_DefaultOverrunErrorHandler
  4194  06AF  00F1               	movwf	EUSART_SetOverrunErrorHandler@interruptHandler+1
  4195  06B0  3186  2672  3186   	fcall	_EUSART_SetOverrunErrorHandler
  4196                           
  4197                           ;mcc_generated_files/eusart.c: 87:     EUSART_SetErrorHandler(EUSART_DefaultErrorHandler
      +                          );
  4198  06B3  3060               	movlw	low _EUSART_DefaultErrorHandler
  4199  06B4  00F0               	movwf	EUSART_SetErrorHandler@interruptHandler
  4200  06B5  3006               	movlw	high _EUSART_DefaultErrorHandler
  4201  06B6  00F1               	movwf	EUSART_SetErrorHandler@interruptHandler+1
  4202  06B7  3186  2666         	fcall	_EUSART_SetErrorHandler
  4203                           
  4204                           ;mcc_generated_files/eusart.c: 89:     eusartRxLastError.status = 0;
  4205  06B9  0020               	movlb	0	; select bank0
  4206  06BA  01E3               	clrf	_eusartRxLastError	;volatile
  4207  06BB  0008               	return
  4208  06BC                     __end_of_EUSART_Initialize:	
  4209                           
  4210                           	psect	text7
  4211  0672                     __ptext7:	
  4212 ;; *************** function _EUSART_SetOverrunErrorHandler *****************
  4213 ;; Defined at:
  4214 ;;		line 166 in file "mcc_generated_files/eusart.c"
  4215 ;; Parameters:    Size  Location     Type
  4216 ;;  interruptHan    2    0[COMMON] PTR FTN()void 
  4217 ;;		 -> EUSART_DefaultOverrunErrorHandler(1), 
  4218 ;; Auto vars:     Size  Location     Type
  4219 ;;		None
  4220 ;; Return value:  Size  Location     Type
  4221 ;;                  1    wreg      void 
  4222 ;; Registers used:
  4223 ;;		wreg
  4224 ;; Tracked objects:
  4225 ;;		On entry : 0/0
  4226 ;;		On exit  : 0/0
  4227 ;;		Unchanged: 0/0
  4228 ;; Data sizes:     COMMON   BANK0   BANK1   BANK2   BANK3   BANK4   BANK5   BANK6   BANK7   BANK8   BANK9  BANK10  BANK1
      +1  BANK12
  4229 ;;      Params:         2       0       0       0       0       0       0       0       0       0       0       0       
      +0       0
  4230 ;;      Locals:         0       0       0       0       0       0       0       0       0       0       0       0       
      +0       0
  4231 ;;      Temps:          0       0       0       0       0       0       0       0       0       0       0       0       
      +0       0
  4232 ;;      Totals:         2       0       0       0       0       0       0       0       0       0       0       0       
      +0       0
  4233 ;;Total ram usage:        2 bytes
  4234 ;; Hardware stack levels used:    1
  4235 ;; This function calls:
  4236 ;;		Nothing
  4237 ;; This function is called by:
  4238 ;;		_EUSART_Initialize
  4239 ;; This function uses a non-reentrant model
  4240 ;;
  4241                           
  4242                           
  4243                           ;psect for function _EUSART_SetOverrunErrorHandler
  4244  0672                     _EUSART_SetOverrunErrorHandler:	
  4245                           
  4246                           ;mcc_generated_files/eusart.c: 167:     EUSART_OverrunErrorHandler = interruptHandler;
  4247                           
  4248                           ;incstack = 0
  4249                           ; Regs used in _EUSART_SetOverrunErrorHandler: [wreg]
  4250  0672  0871               	movf	EUSART_SetOverrunErrorHandler@interruptHandler+1,w
  4251  0673  0020               	movlb	0	; select bank0
  4252  0674  00E0               	movwf	_EUSART_OverrunErrorHandler+1
  4253  0675  0870               	movf	EUSART_SetOverrunErrorHandler@interruptHandler,w
  4254  0676  00DF               	movwf	_EUSART_OverrunErrorHandler
  4255  0677  0008               	return
  4256  0678                     __end_of_EUSART_SetOverrunErrorHandler:	
  4257                           
  4258                           	psect	text8
  4259  066C                     __ptext8:	
  4260 ;; *************** function _EUSART_SetFramingErrorHandler *****************
  4261 ;; Defined at:
  4262 ;;		line 162 in file "mcc_generated_files/eusart.c"
  4263 ;; Parameters:    Size  Location     Type
  4264 ;;  interruptHan    2    0[COMMON] PTR FTN()void 
  4265 ;;		 -> EUSART_DefaultFramingErrorHandler(1), 
  4266 ;; Auto vars:     Size  Location     Type
  4267 ;;		None
  4268 ;; Return value:  Size  Location     Type
  4269 ;;                  1    wreg      void 
  4270 ;; Registers used:
  4271 ;;		wreg
  4272 ;; Tracked objects:
  4273 ;;		On entry : 0/0
  4274 ;;		On exit  : 0/0
  4275 ;;		Unchanged: 0/0
  4276 ;; Data sizes:     COMMON   BANK0   BANK1   BANK2   BANK3   BANK4   BANK5   BANK6   BANK7   BANK8   BANK9  BANK10  BANK1
      +1  BANK12
  4277 ;;      Params:         2       0       0       0       0       0       0       0       0       0       0       0       
      +0       0
  4278 ;;      Locals:         0       0       0       0       0       0       0       0       0       0       0       0       
      +0       0
  4279 ;;      Temps:          0       0       0       0       0       0       0       0       0       0       0       0       
      +0       0
  4280 ;;      Totals:         2       0       0       0       0       0       0       0       0       0       0       0       
      +0       0
  4281 ;;Total ram usage:        2 bytes
  4282 ;; Hardware stack levels used:    1
  4283 ;; This function calls:
  4284 ;;		Nothing
  4285 ;; This function is called by:
  4286 ;;		_EUSART_Initialize
  4287 ;; This function uses a non-reentrant model
  4288 ;;
  4289                           
  4290                           
  4291                           ;psect for function _EUSART_SetFramingErrorHandler
  4292  066C                     _EUSART_SetFramingErrorHandler:	
  4293                           
  4294                           ;mcc_generated_files/eusart.c: 163:     EUSART_FramingErrorHandler = interruptHandler;
  4295                           
  4296                           ;incstack = 0
  4297                           ; Regs used in _EUSART_SetFramingErrorHandler: [wreg]
  4298  066C  0871               	movf	EUSART_SetFramingErrorHandler@interruptHandler+1,w
  4299  066D  0020               	movlb	0	; select bank0
  4300  066E  00E2               	movwf	_EUSART_FramingErrorHandler+1
  4301  066F  0870               	movf	EUSART_SetFramingErrorHandler@interruptHandler,w
  4302  0670  00E1               	movwf	_EUSART_FramingErrorHandler
  4303  0671  0008               	return
  4304  0672                     __end_of_EUSART_SetFramingErrorHandler:	
  4305                           
  4306                           	psect	text9
  4307  0666                     __ptext9:	
  4308 ;; *************** function _EUSART_SetErrorHandler *****************
  4309 ;; Defined at:
  4310 ;;		line 170 in file "mcc_generated_files/eusart.c"
  4311 ;; Parameters:    Size  Location     Type
  4312 ;;  interruptHan    2    0[COMMON] PTR FTN()void 
  4313 ;;		 -> EUSART_DefaultErrorHandler(1), 
  4314 ;; Auto vars:     Size  Location     Type
  4315 ;;		None
  4316 ;; Return value:  Size  Location     Type
  4317 ;;                  1    wreg      void 
  4318 ;; Registers used:
  4319 ;;		wreg
  4320 ;; Tracked objects:
  4321 ;;		On entry : 0/0
  4322 ;;		On exit  : 0/0
  4323 ;;		Unchanged: 0/0
  4324 ;; Data sizes:     COMMON   BANK0   BANK1   BANK2   BANK3   BANK4   BANK5   BANK6   BANK7   BANK8   BANK9  BANK10  BANK1
      +1  BANK12
  4325 ;;      Params:         2       0       0       0       0       0       0       0       0       0       0       0       
      +0       0
  4326 ;;      Locals:         0       0       0       0       0       0       0       0       0       0       0       0       
      +0       0
  4327 ;;      Temps:          0       0       0       0       0       0       0       0       0       0       0       0       
      +0       0
  4328 ;;      Totals:         2       0       0       0       0       0       0       0       0       0       0       0       
      +0       0
  4329 ;;Total ram usage:        2 bytes
  4330 ;; Hardware stack levels used:    1
  4331 ;; This function calls:
  4332 ;;		Nothing
  4333 ;; This function is called by:
  4334 ;;		_EUSART_Initialize
  4335 ;; This function uses a non-reentrant model
  4336 ;;
  4337                           
  4338                           
  4339                           ;psect for function _EUSART_SetErrorHandler
  4340  0666                     _EUSART_SetErrorHandler:	
  4341                           
  4342                           ;mcc_generated_files/eusart.c: 171:     EUSART_ErrorHandler = interruptHandler;
  4343                           
  4344                           ;incstack = 0
  4345                           ; Regs used in _EUSART_SetErrorHandler: [wreg]
  4346  0666  0871               	movf	EUSART_SetErrorHandler@interruptHandler+1,w
  4347  0667  0020               	movlb	0	; select bank0
  4348  0668  00DE               	movwf	_EUSART_ErrorHandler+1
  4349  0669  0870               	movf	EUSART_SetErrorHandler@interruptHandler,w
  4350  066A  00DD               	movwf	_EUSART_ErrorHandler
  4351  066B  0008               	return
  4352  066C                     __end_of_EUSART_SetErrorHandler:	
  4353                           
  4354                           	psect	text10
  4355  06BC                     __ptext10:	
  4356 ;; *************** function _EUSART_Read *****************
  4357 ;; Defined at:
  4358 ;;		line 112 in file "mcc_generated_files/eusart.c"
  4359 ;; Parameters:    Size  Location     Type
  4360 ;;		None
  4361 ;; Auto vars:     Size  Location     Type
  4362 ;;		None
  4363 ;; Return value:  Size  Location     Type
  4364 ;;                  1    wreg      unsigned char 
  4365 ;; Registers used:
  4366 ;;		wreg, status,2, status,0, pclath, cstack
  4367 ;; Tracked objects:
  4368 ;;		On entry : 0/0
  4369 ;;		On exit  : 0/0
  4370 ;;		Unchanged: 0/0
  4371 ;; Data sizes:     COMMON   BANK0   BANK1   BANK2   BANK3   BANK4   BANK5   BANK6   BANK7   BANK8   BANK9  BANK10  BANK1
      +1  BANK12
  4372 ;;      Params:         0       0       0       0       0       0       0       0       0       0       0       0       
      +0       0
  4373 ;;      Locals:         0       0       0       0       0       0       0       0       0       0       0       0       
      +0       0
  4374 ;;      Temps:          0       0       0       0       0       0       0       0       0       0       0       0       
      +0       0
  4375 ;;      Totals:         0       0       0       0       0       0       0       0       0       0       0       0       
      +0       0
  4376 ;;Total ram usage:        0 bytes
  4377 ;; Hardware stack levels used:    1
  4378 ;; Hardware stack levels required when called:    1
  4379 ;; This function calls:
  4380 ;;		Absolute function
  4381 ;;		_EUSART_DefaultErrorHandler
  4382 ;;		_EUSART_DefaultFramingErrorHandler
  4383 ;;		_EUSART_DefaultOverrunErrorHandler
  4384 ;; This function is called by:
  4385 ;;		_main
  4386 ;;		_USBUART_example
  4387 ;; This function uses a non-reentrant model
  4388 ;;
  4389                           
  4390                           
  4391                           ;psect for function _EUSART_Read
  4392  06BC                     _EUSART_Read:	
  4393  06BC                     l205:	
  4394                           ;mcc_generated_files/eusart.c: 115:     {;mcc_generated_files/eusart.c: 116:     }
  4395                           
  4396                           ;incstack = 0
  4397                           ; Regs used in _EUSART_Read: [wreg+status,2+status,0+pclath+cstack]
  4398                           
  4399                           
  4400                           ;mcc_generated_files/eusart.c: 114:     while(!PIR1bits.RCIF)
  4401  06BC  0020               	movlb	0	; select bank0
  4402  06BD  1E90               	btfss	16,5	;volatile
  4403  06BE  2EBC               	goto	l205
  4404                           
  4405                           ;mcc_generated_files/eusart.c: 118:     eusartRxLastError.status = 0;
  4406  06BF  01E3               	clrf	_eusartRxLastError	;volatile
  4407                           
  4408                           ;mcc_generated_files/eusart.c: 120:     if(RC1STAbits.FERR){
  4409  06C0  0023               	movlb	3	; select bank3
  4410  06C1  1D1D               	btfss	29,2	;volatile
  4411  06C2  2ECA               	goto	l1226
  4412                           
  4413                           ;mcc_generated_files/eusart.c: 121:         eusartRxLastError.ferr = 1;
  4414  06C3  0020               	movlb	0	; select bank0
  4415  06C4  14E3               	bsf	_eusartRxLastError,1	;volatile
  4416                           
  4417                           ;mcc_generated_files/eusart.c: 122:         EUSART_FramingErrorHandler();
  4418  06C5  0862               	movf	_EUSART_FramingErrorHandler+1,w
  4419  06C6  008A               	movwf	10
  4420  06C7  0861               	movf	_EUSART_FramingErrorHandler,w
  4421  06C8  000A               	callw
  4422  06C9  3186               	pagesel	$
  4423  06CA                     l1226:	
  4424                           
  4425                           ;mcc_generated_files/eusart.c: 125:     if(RC1STAbits.OERR){
  4426  06CA  0023               	movlb	3	; select bank3
  4427  06CB  1C9D               	btfss	29,1	;volatile
  4428  06CC  2ED4               	goto	l1232
  4429                           
  4430                           ;mcc_generated_files/eusart.c: 126:         eusartRxLastError.oerr = 1;
  4431  06CD  0020               	movlb	0	; select bank0
  4432  06CE  1563               	bsf	_eusartRxLastError,2	;volatile
  4433                           
  4434                           ;mcc_generated_files/eusart.c: 127:         EUSART_OverrunErrorHandler();
  4435  06CF  0860               	movf	_EUSART_OverrunErrorHandler+1,w
  4436  06D0  008A               	movwf	10
  4437  06D1  085F               	movf	_EUSART_OverrunErrorHandler,w
  4438  06D2  000A               	callw
  4439  06D3  3186               	pagesel	$
  4440  06D4                     l1232:	
  4441                           
  4442                           ;mcc_generated_files/eusart.c: 130:     if(eusartRxLastError.status){
  4443  06D4  0020               	movlb	0	; select bank0
  4444  06D5  0863               	movf	_eusartRxLastError,w	;volatile
  4445  06D6  1903               	btfsc	3,2
  4446  06D7  2EDD               	goto	l1236
  4447                           
  4448                           ;mcc_generated_files/eusart.c: 131:         EUSART_ErrorHandler();
  4449  06D8  085E               	movf	_EUSART_ErrorHandler+1,w
  4450  06D9  008A               	movwf	10
  4451  06DA  085D               	movf	_EUSART_ErrorHandler,w
  4452  06DB  000A               	callw
  4453  06DC  3186               	pagesel	$
  4454  06DD                     l1236:	
  4455                           
  4456                           ;mcc_generated_files/eusart.c: 134:     return RC1REG;
  4457  06DD  0023               	movlb	3	; select bank3
  4458  06DE  0819               	movf	25,w	;volatile
  4459  06DF  0008               	return
  4460  06E0                     __end_of_EUSART_Read:	
  4461                           
  4462                           	psect	text11
  4463  0662                     __ptext11:	
  4464 ;; *************** function _EUSART_DefaultOverrunErrorHandler *****************
  4465 ;; Defined at:
  4466 ;;		line 151 in file "mcc_generated_files/eusart.c"
  4467 ;; Parameters:    Size  Location     Type
  4468 ;;		None
  4469 ;; Auto vars:     Size  Location     Type
  4470 ;;		None
  4471 ;; Return value:  Size  Location     Type
  4472 ;;                  1    wreg      void 
  4473 ;; Registers used:
  4474 ;;		None
  4475 ;; Tracked objects:
  4476 ;;		On entry : 0/0
  4477 ;;		On exit  : 0/0
  4478 ;;		Unchanged: 0/0
  4479 ;; Data sizes:     COMMON   BANK0   BANK1   BANK2   BANK3   BANK4   BANK5   BANK6   BANK7   BANK8   BANK9  BANK10  BANK1
      +1  BANK12
  4480 ;;      Params:         0       0       0       0       0       0       0       0       0       0       0       0       
      +0       0
  4481 ;;      Locals:         0       0       0       0       0       0       0       0       0       0       0       0       
      +0       0
  4482 ;;      Temps:          0       0       0       0       0       0       0       0       0       0       0       0       
      +0       0
  4483 ;;      Totals:         0       0       0       0       0       0       0       0       0       0       0       0       
      +0       0
  4484 ;;Total ram usage:        0 bytes
  4485 ;; Hardware stack levels used:    1
  4486 ;; This function calls:
  4487 ;;		Nothing
  4488 ;; This function is called by:
  4489 ;;		_EUSART_Initialize
  4490 ;;		_EUSART_Read
  4491 ;; This function uses a non-reentrant model
  4492 ;;
  4493                           
  4494                           
  4495                           ;psect for function _EUSART_DefaultOverrunErrorHandler
  4496  0662                     _EUSART_DefaultOverrunErrorHandler:	
  4497                           
  4498                           ;mcc_generated_files/eusart.c: 154:     RC1STAbits.CREN = 0;
  4499                           
  4500                           ;incstack = 0
  4501                           ; Regs used in _EUSART_DefaultOverrunErrorHandler: []
  4502  0662  0023               	movlb	3	; select bank3
  4503  0663  121D               	bcf	29,4	;volatile
  4504                           
  4505                           ;mcc_generated_files/eusart.c: 155:     RC1STAbits.CREN = 1;
  4506  0664  161D               	bsf	29,4	;volatile
  4507  0665  0008               	return
  4508  0666                     __end_of_EUSART_DefaultOverrunErrorHandler:	
  4509                           
  4510                           	psect	text12
  4511  0661                     __ptext12:	
  4512 ;; *************** function _EUSART_DefaultFramingErrorHandler *****************
  4513 ;; Defined at:
  4514 ;;		line 149 in file "mcc_generated_files/eusart.c"
  4515 ;; Parameters:    Size  Location     Type
  4516 ;;		None
  4517 ;; Auto vars:     Size  Location     Type
  4518 ;;		None
  4519 ;; Return value:  Size  Location     Type
  4520 ;;                  1    wreg      void 
  4521 ;; Registers used:
  4522 ;;		None
  4523 ;; Tracked objects:
  4524 ;;		On entry : 0/0
  4525 ;;		On exit  : 0/0
  4526 ;;		Unchanged: 0/0
  4527 ;; Data sizes:     COMMON   BANK0   BANK1   BANK2   BANK3   BANK4   BANK5   BANK6   BANK7   BANK8   BANK9  BANK10  BANK1
      +1  BANK12
  4528 ;;      Params:         0       0       0       0       0       0       0       0       0       0       0       0       
      +0       0
  4529 ;;      Locals:         0       0       0       0       0       0       0       0       0       0       0       0       
      +0       0
  4530 ;;      Temps:          0       0       0       0       0       0       0       0       0       0       0       0       
      +0       0
  4531 ;;      Totals:         0       0       0       0       0       0       0       0       0       0       0       0       
      +0       0
  4532 ;;Total ram usage:        0 bytes
  4533 ;; Hardware stack levels used:    1
  4534 ;; This function calls:
  4535 ;;		Nothing
  4536 ;; This function is called by:
  4537 ;;		_EUSART_Initialize
  4538 ;;		_EUSART_Read
  4539 ;; This function uses a non-reentrant model
  4540 ;;
  4541                           
  4542                           
  4543                           ;psect for function _EUSART_DefaultFramingErrorHandler
  4544  0661                     _EUSART_DefaultFramingErrorHandler:	
  4545                           
  4546                           ;incstack = 0
  4547                           ; Regs used in _EUSART_DefaultFramingErrorHandler: []
  4548  0661  0008               	return
  4549  0662                     __end_of_EUSART_DefaultFramingErrorHandler:	
  4550                           
  4551                           	psect	text13
  4552  0660                     __ptext13:	
  4553 ;; *************** function _EUSART_DefaultErrorHandler *****************
  4554 ;; Defined at:
  4555 ;;		line 159 in file "mcc_generated_files/eusart.c"
  4556 ;; Parameters:    Size  Location     Type
  4557 ;;		None
  4558 ;; Auto vars:     Size  Location     Type
  4559 ;;		None
  4560 ;; Return value:  Size  Location     Type
  4561 ;;                  1    wreg      void 
  4562 ;; Registers used:
  4563 ;;		None
  4564 ;; Tracked objects:
  4565 ;;		On entry : 0/0
  4566 ;;		On exit  : 0/0
  4567 ;;		Unchanged: 0/0
  4568 ;; Data sizes:     COMMON   BANK0   BANK1   BANK2   BANK3   BANK4   BANK5   BANK6   BANK7   BANK8   BANK9  BANK10  BANK1
      +1  BANK12
  4569 ;;      Params:         0       0       0       0       0       0       0       0       0       0       0       0       
      +0       0
  4570 ;;      Locals:         0       0       0       0       0       0       0       0       0       0       0       0       
      +0       0
  4571 ;;      Temps:          0       0       0       0       0       0       0       0       0       0       0       0       
      +0       0
  4572 ;;      Totals:         0       0       0       0       0       0       0       0       0       0       0       0       
      +0       0
  4573 ;;Total ram usage:        0 bytes
  4574 ;; Hardware stack levels used:    1
  4575 ;; This function calls:
  4576 ;;		Nothing
  4577 ;; This function is called by:
  4578 ;;		_EUSART_Initialize
  4579 ;;		_EUSART_Read
  4580 ;; This function uses a non-reentrant model
  4581 ;;
  4582                           
  4583                           
  4584                           ;psect for function _EUSART_DefaultErrorHandler
  4585  0660                     _EUSART_DefaultErrorHandler:	
  4586                           
  4587                           ;incstack = 0
  4588                           ; Regs used in _EUSART_DefaultErrorHandler: []
  4589  0660  0008               	return
  4590  0661                     __end_of_EUSART_DefaultErrorHandler:	
  4591  007E                     btemp	set	126	;btemp
  4592  007E                     wtemp0	set	126


Data Sizes:
    Strings     38
    Constant    12
    Data        0
    BSS         47
    Persistent  32
    Stack       0

Auto Spaces:
    Space          Size  Autos    Used
    COMMON           14     14      14
    BANK0            80     53      68
    BANK1            80      0      32
    BANK2            80      0       0
    BANK3            80      0       0
    BANK4            80      0       0
    BANK5            80      0       0
    BANK6            80      0       0
    BANK7            80      0       0
    BANK8            80      0       0
    BANK9            80      0       0
    BANK10           80      0       0
    BANK11           80      0       0
    BANK12           48      0       0

Pointer List with Targets:

    S889_IO_FILE$buffer	PTR unsigned char  size(1) Largest target is 0

    fputc@fp.buffer	PTR unsigned char  size(1) Largest target is 0

    memset@dest	PTR void  size(1) Largest target is 50
		 -> main@data(BANK0[50]), 

    memset@s	PTR unsigned char  size(1) Largest target is 50
		 -> main@data(BANK0[50]), 

    sp__memset	PTR void  size(1) Largest target is 50
		 -> main@data(BANK0[50]), 

    EUSART_SetErrorHandler@interruptHandler	PTR FTN()void  size(2) Largest target is 1
		 -> EUSART_DefaultErrorHandler(), 

    EUSART_SetOverrunErrorHandler@interruptHandler	PTR FTN()void  size(2) Largest target is 1
		 -> EUSART_DefaultOverrunErrorHandler(), 

    EUSART_SetFramingErrorHandler@interruptHandler	PTR FTN()void  size(2) Largest target is 1
		 -> EUSART_DefaultFramingErrorHandler(), 

    EUSART_ErrorHandler	PTR FTN()void  size(2) Largest target is 1
		 -> Absolute function(), EUSART_DefaultErrorHandler(), 

    EUSART_OverrunErrorHandler	PTR FTN()void  size(2) Largest target is 1
		 -> Absolute function(), EUSART_DefaultOverrunErrorHandler(), 

    EUSART_FramingErrorHandler	PTR FTN()void  size(2) Largest target is 1
		 -> Absolute function(), EUSART_DefaultFramingErrorHandler(), 

    S28$Write	PTR FTN(unsigned char ,)void  size(2) Largest target is 1
		 -> EUSART_Write(), 

    uart.Write	PTR FTN(unsigned char ,)void  size(2) Largest target is 1
		 -> EUSART_Write(), 

    S28$TransmitReady	PTR FTN()unsigned char  size(2) Largest target is 1
		 -> EUSART_is_tx_ready(), 

    uart.TransmitReady	PTR FTN()unsigned char  size(2) Largest target is 1
		 -> EUSART_is_tx_ready(), 

    S28$TransmitDone	PTR FTN()_Bool  size(2) Largest target is 1
		 -> EUSART_is_tx_done(), 

    uart.TransmitDone	PTR FTN()_Bool  size(2) Largest target is 1
		 -> EUSART_is_tx_done(), 

    S28$Read	PTR FTN()unsigned char  size(2) Largest target is 1
		 -> EUSART_Read(), 

    uart.Read	PTR FTN()unsigned char  size(2) Largest target is 1
		 -> EUSART_Read(), 

    S28$Initialize	PTR FTN()void  size(2) Largest target is 1
		 -> EUSART_Initialize(), 

    uart.Initialize	PTR FTN()void  size(2) Largest target is 1
		 -> EUSART_Initialize(), 

    S28$DataReady	PTR FTN()unsigned char  size(2) Largest target is 1
		 -> EUSART_is_rx_ready(), 

    uart.DataReady	PTR FTN()unsigned char  size(2) Largest target is 1
		 -> EUSART_is_rx_ready(), 


Critical Paths under _main in COMMON

    _main->_memset
    _EUSART_Initialize->_EUSART_SetErrorHandler
    _EUSART_Initialize->_EUSART_SetFramingErrorHandler
    _EUSART_Initialize->_EUSART_SetOverrunErrorHandler

Critical Paths under _main in BANK0

    None.

Critical Paths under _main in BANK1

    None.

Critical Paths under _main in BANK2

    None.

Critical Paths under _main in BANK3

    None.

Critical Paths under _main in BANK4

    None.

Critical Paths under _main in BANK5

    None.

Critical Paths under _main in BANK6

    None.

Critical Paths under _main in BANK7

    None.

Critical Paths under _main in BANK8

    None.

Critical Paths under _main in BANK9

    None.

Critical Paths under _main in BANK10

    None.

Critical Paths under _main in BANK11

    None.

Critical Paths under _main in BANK12

    None.

Call Graph Tables:

 ---------------------------------------------------------------------------------
 (Depth) Function   	        Calls       Base Space   Used Autos Params    Refs
 ---------------------------------------------------------------------------------
 (0) _main                                                57    53      4    1626
                                             10 COMMON     4     0      4
                                              0 BANK0     53    53      0
                  _EUSART_Initialize
                        _EUSART_Read
              _OSCILLATOR_Initialize
             _PIN_MANAGER_Initialize
                  _SYSTEM_Initialize
                             _memset
 ---------------------------------------------------------------------------------
 (1) _memset                                              10     6      4     904
                                              0 COMMON    10     6      4
 ---------------------------------------------------------------------------------
 (1) _SYSTEM_Initialize                                    0     0      0     294
                  _EUSART_Initialize
              _OSCILLATOR_Initialize
             _PIN_MANAGER_Initialize
                     _SPI_Initialize
 ---------------------------------------------------------------------------------
 (2) _SPI_Initialize                                       0     0      0       0
 ---------------------------------------------------------------------------------
 (2) _PIN_MANAGER_Initialize                               0     0      0       0
 ---------------------------------------------------------------------------------
 (2) _OSCILLATOR_Initialize                                0     0      0       0
 ---------------------------------------------------------------------------------
 (2) _EUSART_Initialize                                    0     0      0     294
             _EUSART_SetErrorHandler
      _EUSART_SetFramingErrorHandler
      _EUSART_SetOverrunErrorHandler
 ---------------------------------------------------------------------------------
 (3) _EUSART_SetOverrunErrorHandler                        2     0      2      98
                                              0 COMMON     2     0      2
 ---------------------------------------------------------------------------------
 (3) _EUSART_SetFramingErrorHandler                        2     0      2      98
                                              0 COMMON     2     0      2
 ---------------------------------------------------------------------------------
 (3) _EUSART_SetErrorHandler                               2     0      2      98
                                              0 COMMON     2     0      2
 ---------------------------------------------------------------------------------
 (1) _EUSART_Read                                          0     0      0       0
                   Absolute function *
         _EUSART_DefaultErrorHandler *
  _EUSART_DefaultFramingErrorHandler *
  _EUSART_DefaultOverrunErrorHandler *
 ---------------------------------------------------------------------------------
 (2) _EUSART_DefaultOverrunErrorHandler                    0     0      0       0
 ---------------------------------------------------------------------------------
 (2) _EUSART_DefaultFramingErrorHandler                    0     0      0       0
 ---------------------------------------------------------------------------------
 (2) _EUSART_DefaultErrorHandler                           0     0      0       0
 ---------------------------------------------------------------------------------
 (2) Absolute function(Fake)                               0     0      0       0
 ---------------------------------------------------------------------------------
 Estimated maximum stack depth 3
 ---------------------------------------------------------------------------------

 Call Graph Graphs:

 _main (ROOT)
   _EUSART_Initialize
     _EUSART_SetErrorHandler
     _EUSART_SetFramingErrorHandler
     _EUSART_SetOverrunErrorHandler
   _EUSART_Read
     Absolute function(Fake) *
     _EUSART_DefaultErrorHandler *
     _EUSART_DefaultFramingErrorHandler *
     _EUSART_DefaultOverrunErrorHandler *
   _OSCILLATOR_Initialize
   _PIN_MANAGER_Initialize
   _SYSTEM_Initialize
     _EUSART_Initialize
       _EUSART_SetErrorHandler
       _EUSART_SetFramingErrorHandler
       _EUSART_SetOverrunErrorHandler
     _OSCILLATOR_Initialize
     _PIN_MANAGER_Initialize
     _SPI_Initialize
   _memset

 Address spaces:
Name               Size   Autos  Total    Cost      Usage
BIGRAM             3F0      0       0       0        0.0%
NULL                 0      0       0       0        0.0%
CODE                 0      0       0       0        0.0%
BITCOMMON            E      0       0       1        0.0%
BITSFR0              0      0       0       1        0.0%
SFR0                 0      0       0       1        0.0%
COMMON               E      E       E       2      100.0%
BITSFR1              0      0       0       2        0.0%
SFR1                 0      0       0       2        0.0%
BITSFR2              0      0       0       3        0.0%
SFR2                 0      0       0       3        0.0%
STACK                0      0       0       3        0.0%
BITBANK0            50      0       0       4        0.0%
BITSFR3              0      0       0       4        0.0%
SFR3                 0      0       0       4        0.0%
BANK0               50     35      44       5       85.0%
BITSFR4              0      0       0       5        0.0%
SFR4                 0      0       0       5        0.0%
BITBANK1            50      0       0       6        0.0%
BITSFR5              0      0       0       6        0.0%
SFR5                 0      0       0       6        0.0%
BANK1               50      0      20       7       40.0%
BITSFR6              0      0       0       7        0.0%
SFR6                 0      0       0       7        0.0%
BITBANK2            50      0       0       8        0.0%
BITSFR7              0      0       0       8        0.0%
SFR7                 0      0       0       8        0.0%
BANK2               50      0       0       9        0.0%
BITSFR8              0      0       0       9        0.0%
SFR8                 0      0       0       9        0.0%
BITBANK3            50      0       0      10        0.0%
BITSFR9              0      0       0      10        0.0%
SFR9                 0      0       0      10        0.0%
BANK3               50      0       0      11        0.0%
BITSFR10             0      0       0      11        0.0%
SFR10                0      0       0      11        0.0%
BITBANK4            50      0       0      12        0.0%
BITSFR11             0      0       0      12        0.0%
SFR11                0      0       0      12        0.0%
BANK4               50      0       0      13        0.0%
BITSFR12             0      0       0      13        0.0%
SFR12                0      0       0      13        0.0%
BITBANK5            50      0       0      14        0.0%
BITSFR13             0      0       0      14        0.0%
SFR13                0      0       0      14        0.0%
BANK5               50      0       0      15        0.0%
BITSFR14             0      0       0      15        0.0%
SFR14                0      0       0      15        0.0%
BITBANK6            50      0       0      16        0.0%
BITSFR15             0      0       0      16        0.0%
SFR15                0      0       0      16        0.0%
BANK6               50      0       0      17        0.0%
BITSFR16             0      0       0      17        0.0%
SFR16                0      0       0      17        0.0%
BITBANK7            50      0       0      18        0.0%
BITSFR17             0      0       0      18        0.0%
SFR17                0      0       0      18        0.0%
BANK7               50      0       0      19        0.0%
BITSFR18             0      0       0      19        0.0%
SFR18                0      0       0      19        0.0%
BITSFR19             0      0       0      20        0.0%
SFR19                0      0       0      20        0.0%
ABS                  0      0      72      20        0.0%
BITBANK8            50      0       0      21        0.0%
BITSFR20             0      0       0      21        0.0%
SFR20                0      0       0      21        0.0%
BANK8               50      0       0      22        0.0%
BITSFR21             0      0       0      22        0.0%
SFR21                0      0       0      22        0.0%
BITBANK9            50      0       0      23        0.0%
BITSFR22             0      0       0      23        0.0%
SFR22                0      0       0      23        0.0%
BANK9               50      0       0      24        0.0%
BITSFR23             0      0       0      24        0.0%
SFR23                0      0       0      24        0.0%
BITBANK10           50      0       0      25        0.0%
BITSFR24             0      0       0      25        0.0%
SFR24                0      0       0      25        0.0%
BANK10              50      0       0      26        0.0%
BITSFR25             0      0       0      26        0.0%
SFR25                0      0       0      26        0.0%
BITBANK11           50      0       0      27        0.0%
BITSFR26             0      0       0      27        0.0%
SFR26                0      0       0      27        0.0%
BANK11              50      0       0      28        0.0%
BITSFR27             0      0       0      28        0.0%
SFR27                0      0       0      28        0.0%
BITBANK12           30      0       0      29        0.0%
BITSFR28             0      0       0      29        0.0%
SFR28                0      0       0      29        0.0%
BANK12              30      0       0      30        0.0%
BITSFR29             0      0       0      30        0.0%
SFR29                0      0       0      30        0.0%
BITSFR30             0      0       0      31        0.0%
SFR30                0      0       0      31        0.0%
DATA                 0      0      72      31        0.0%
BITSFR31             0      0       0      32        0.0%
SFR31                0      0       0      32        0.0%


Microchip Technology PIC Macro Assembler V2.05 build -831301201 
Symbol Table                                                                                   Fri Apr 12 16:41:59 2019

                               _SPI_Initialize 067E                                    __CFG_CP$OFF 0000  
                                           _BF 10A0                                             l81 068B  
                                  __CFG_LVP$ON 0000                                            l205 06BC  
                                          u377 071E                                            u387 0727  
               ?_EUSART_SetFramingErrorHandler 0070                                   __CFG_BORV$LO 0000  
                                          wreg 0009                                   __CFG_IESO$ON 0000  
                                 ?_EUSART_Read 0070                                   __CFG_ZCD$OFF 0000  
                                         l1232 06D4                                           l1226 06CA  
                                         l1306 0753                                           l1236 06DD  
                                         l1284 07DA                                           l1298 073D  
                                         STR_1 080C                                           _LATA 010C  
                                         _LATB 010D                                           _LATC 010E  
                                         _PLLR 04D6                                           _WPUA 020C  
                                         _WPUB 020D                                           _WPUC 020E  
                                 __CFG_WRT$OFF 0000                                  __CFG_FCMEN$ON 0000  
                                         _dbuf 00A0                                           _main 0711  
                                         _prec 0059                                           _uart 0800  
                                         _nout 0055                                           fsr0h 0005  
                                         fsr1h 0007                                           indf0 0000  
                                         fsr0l 0004                                           indf1 0001  
                                         fsr1l 0006                                           btemp 007E  
                                __CFG_BOREN$ON 0000                                           start 0002  
                       __end_of_SPI_Initialize 0685                                  __CFG_MCLRE$ON 0000  
                                __CFG_PLLEN$ON 0000                 __size_of_OSCILLATOR_Initialize 000A  
                __end_of_OSCILLATOR_Initialize 068F                                          ?_main 007A  
                                __CFG_WDTE$OFF 0000                                          _TRISA 008C  
                                        _TRISB 008D                                          _TRISC 008E  
                                        _RXPPS 0E24                                          _flags 005B  
                                        _width 0057                                          main@x 0053  
                                        pclath 000A                                          status 0003  
                                        wtemp0 007E                                ?_SPI_Initialize 0070  
                              __initialization 07EE                                   __end_of_main 0759  
                                 __end_of_uart 080C                                 __CFG_LPBOR$OFF 0000  
                                       ??_main 0020      __end_of_EUSART_DefaultFramingErrorHandler 0662  
   __size_of_EUSART_DefaultFramingErrorHandler 0001            ??_EUSART_DefaultFramingErrorHandler 0070  
           ?_EUSART_DefaultFramingErrorHandler 0070              _EUSART_DefaultFramingErrorHandler 0661  
                   _EUSART_OverrunErrorHandler 005F                                         _ANSELA 018C  
                                       _ANSELB 018D                                         _ANSELC 018E  
                                       _BORCON 0116                                         _RC1REG 0199  
                                       _RC1STA 019D                                         _RB6PPS 0E9E  
                                       _RB7PPS 0E9F                                         _ODCONA 028C  
                                       _ODCONB 028D                                         _ODCONC 028E  
                                       _OSCCON 0099                                         _SPBRGH 019C  
                                       _SPBRGL 019B                                         _TX1REG 019A  
                                       _TX1STA 019E                                         _TRISC3 0473  
                                       _TRISC5 0475                                         _SSPCON 0215  
                                       _SSPBUF 0211                                 __CFG_PWRTE$OFF 0000  
                               __CFG_STVREN$ON 0000                                         _memset 0759  
                         __size_of_EUSART_Read 0024                              _SYSTEM_Initialize 068F  
                      __end_of__initialization 07FD                             ?_SYSTEM_Initialize 0070  
                               __pcstackCOMMON 0070                            ??_SYSTEM_Initialize 0072  
                               _OPTION_REGbits 0095                ??_EUSART_SetOverrunErrorHandler 0072  
                    __end_of_SYSTEM_Initialize 069B                                     __pbssBANK0 0055  
                                   __pbssBANK1 00A0                                     __pmaintext 0711  
                              __CFG_PPS1WAY$ON 0000                                        ?_memset 0070  
                 ??_EUSART_DefaultErrorHandler 0070                                __CFG_WDTCCS$SWC 0000  
                                      _OSCTUNE 0098                                        _SSP1ADD 0212  
                                      _SLRCONA 030C                                        _SLRCONB 030D  
                                      _SLRCONC 030E                                        _SSP1BUF 0211  
                     ??_EUSART_SetErrorHandler 0072                                        _SSPSTAT 0214  
                             ??_SPI_Initialize 0070            __size_of_EUSART_DefaultErrorHandler 0001  
                              __size_of_memset 0095                                        __ptext1 0759  
                                      __ptext2 068F                                        __ptext3 067E  
                                      __ptext4 06E0                                        __ptext5 0685  
                                      __ptext6 069B                                        __ptext7 0672  
                                      __ptext8 066C                                        __ptext9 0666  
                        _OSCILLATOR_Initialize 0685                       ??_PIN_MANAGER_Initialize 0070  
                   __size_of_SYSTEM_Initialize 000C                                        clrloop0 0679  
                         end_of_initialization 07FD          __end_of_EUSART_SetOverrunErrorHandler 0678  
       __size_of_EUSART_SetOverrunErrorHandler 0006                  _EUSART_SetOverrunErrorHandler 0672  
                                      memset@c 0070                                        memset@k 0076  
                                      memset@n 0072                                        memset@s 0079  
                            _EUSART_Initialize 069B                             ?_EUSART_Initialize 0070  
                           _EUSART_is_rx_ready 0000                             _EUSART_is_tx_ready 0000  
                          ??_EUSART_Initialize 0072                                      _SSPDATPPS 0E21  
                                    _SSPCLKPPS 0E20                               __CFG_FOSC$INTOSC 0000  
              __size_of_EUSART_SetErrorHandler 0006                      __end_of_EUSART_Initialize 06BC  
           __end_of_EUSART_DefaultErrorHandler 0661                     _EUSART_DefaultErrorHandler 0660  
                                 _EUSART_Write 0000                         ?_OSCILLATOR_Initialize 0070  
                               __end_of_memset 07EE                            start_initialization 07EE  
              __size_of_PIN_MANAGER_Initialize 0031                                  ??_EUSART_Read 0070  
               ?_EUSART_SetOverrunErrorHandler 0070                     _EUSART_FramingErrorHandler 0061  
                       _EUSART_SetErrorHandler 0666                                       ??_memset 0074  
                                   memset@dest 0078                                      ___latbits 0002  
                                __pcstackBANK0 0020                     __size_of_EUSART_Initialize 0021  
                          __end_of_EUSART_Read 06E0                         _PIN_MANAGER_Initialize 06E0  
                                     _BAUD1CON 019F                                       _LATAbits 010C  
       EUSART_SetErrorHandler@interruptHandler 0070                                      clear_ram0 0678  
                            _eusartRxLastError 0063                                       _PIR1bits 0010  
              ??_EUSART_SetFramingErrorHandler 0072                              _EUSART_is_tx_done 0000  
                         __CFG_WDTCPS$WDTCPS1F 0000                                       _SSP1CON1 0215  
    __end_of_EUSART_DefaultOverrunErrorHandler 0666     __size_of_EUSART_DefaultOverrunErrorHandler 0004  
          ??_EUSART_DefaultOverrunErrorHandler 0070             ?_EUSART_DefaultOverrunErrorHandler 0070  
            _EUSART_DefaultOverrunErrorHandler 0662                                       _SSP1STAT 0214  
                                  _EUSART_Read 06BC                        __size_of_SPI_Initialize 0007  
                      ??_OSCILLATOR_Initialize 0070                            _EUSART_ErrorHandler 005D  
                  ?_EUSART_DefaultErrorHandler 0070                                       __ptext10 06BC  
                                     __ptext11 0662                                       __ptext12 0661  
                                     __ptext13 0660                                   _SSP1CON1bits 0215  
                                __size_of_main 0048                           __CFG_WDTCWS$WDTCWSSW 0000  
                      ?_EUSART_SetErrorHandler 0070                                     _RC1STAbits 019D  
EUSART_SetOverrunErrorHandler@interruptHandler 0070                                       main@data 0021  
                                     main@argc 007A          __end_of_EUSART_SetFramingErrorHandler 0672  
       __size_of_EUSART_SetFramingErrorHandler 0006                  _EUSART_SetFramingErrorHandler 066C  
                                     main@argv 007C                                   _SSP1STATbits 0214  
                      ?_PIN_MANAGER_Initialize 0070                 __end_of_EUSART_SetErrorHandler 066C  
                            __CFG_CLKOUTEN$OFF 0000  EUSART_SetFramingErrorHandler@interruptHandler 0070  
                                __pstringtext1 0800                                  __pstringtext2 0000  
                                   _TX1STAbits 019E                 __end_of_PIN_MANAGER_Initialize 0711  
